(i__main__
Options
p0
(dp1
S'sizeX'
p2
I79
sS'saveFileFormat'
p3
I1
sS'framerate'
p4
F6.0
sS'sizeY'
p5
I23
sb.(i__main__
Movie
p0
(dp1
S'currentFrameNumber'
p2
I2
sS'sizeX'
p3
I79
sS'sizeY'
p4
I23
sS'stdscr'
p5
NsS'currentFrame'
p6
(i__main__
Frame
p7
(dp8
S'content'
p9
(lp10
(lp11
S' '
p12
ag12
ag12
ag12
ag12
ag12
ag12
ag12
ag12
ag12
ag12
ag12
ag12
ag12
ag12
ag12
ag12
ag12
ag12
ag12
ag12
ag12
ag12
ag12
ag12
ag12
ag12
ag12
ag12
ag12
ag12
ag12
ag12
ag12
ag12
ag12
ag12
ag12
ag12
ag12
ag12
ag12
ag12
ag12
ag12
ag12
ag12
ag12
ag12
ag12
ag12
ag12
ag12
ag12
ag12
ag12
ag12
ag12
ag12
ag12
ag12
ag12
ag12
ag12
ag12
ag12
ag12
ag12
ag12
ag12
ag12
ag12
ag12
ag12
ag12
ag12
ag12
ag12
ag12
aa(lp13
g12
ag12
ag12
ag12
ag12
ag12
ag12
ag12
ag12
ag12
ag12
ag12
ag12
ag12
ag12
ag12
ag12
ag12
ag12
ag12
ag12
ag12
ag12
ag12
ag12
ag12
ag12
ag12
ag12
ag12
ag12
ag12
ag12
ag12
ag12
ag12
ag12
ag12
ag12
ag12
ag12
ag12
ag12
ag12
ag12
ag12
ag12
ag12
ag12
ag12
ag12
ag12
ag12
ag12
ag12
ag12
ag12
ag12
ag12
ag12
ag12
ag12
ag12
ag12
ag12
ag12
ag12
ag12
ag12
ag12
ag12
ag12
ag12
ag12
ag12
ag12
ag12
ag12
ag12
aa(lp14
g12
ag12
ag12
ag12
ag12
ag12
ag12
ag12
ag12
ag12
ag12
ag12
ag12
ag12
ag12
ag12
ag12
ag12
ag12
ag12
ag12
ag12
ag12
ag12
ag12
ag12
ag12
ag12
ag12
ag12
ag12
ag12
ag12
ag12
ag12
ag12
ag12
ag12
ag12
ag12
ag12
ag12
ag12
ag12
ag12
ag12
ag12
ag12
ag12
ag12
ag12
ag12
ag12
ag12
ag12
ag12
ag12
ag12
ag12
ag12
ag12
ag12
ag12
ag12
ag12
ag12
ag12
ag12
ag12
ag12
ag12
ag12
ag12
ag12
ag12
ag12
ag12
ag12
ag12
aa(lp15
g12
ag12
ag12
aS'_'
p16
aS'('
p17
aS')'
p18
aS'|'
p19
ag16
ag17
ag12
ag12
ag12
ag12
ag12
ag12
ag12
ag12
ag12
ag12
ag12
ag12
ag12
ag12
ag12
ag12
ag12
ag12
ag12
ag12
ag12
ag12
ag12
ag12
ag12
ag12
ag12
ag12
ag12
ag12
ag12
ag12
ag12
ag12
ag12
ag12
ag12
ag12
ag12
ag12
ag12
ag12
ag12
ag12
ag12
ag12
ag12
ag12
ag12
ag12
ag12
ag12
ag12
ag12
ag12
ag12
ag12
ag12
ag12
ag12
ag12
ag12
ag12
ag12
ag12
ag12
ag12
ag12
ag12
ag12
aa(lp20
g12
ag12
ag12
ag12
ag12
ag12
ag12
ag12
ag12
ag12
ag12
ag12
ag12
ag12
ag12
ag12
ag12
ag12
ag12
ag12
ag12
ag12
ag12
ag12
ag12
ag12
ag12
ag12
ag12
ag12
ag12
ag12
ag12
ag12
ag12
ag12
ag12
ag12
ag12
ag12
ag12
ag12
ag12
ag12
ag12
ag12
ag12
ag12
ag12
ag12
ag12
ag12
ag12
ag12
ag12
ag12
ag12
ag12
ag12
ag12
ag12
ag12
ag12
ag12
ag12
ag12
ag12
ag12
ag12
ag12
ag12
ag12
ag12
ag12
ag12
ag12
ag12
ag12
ag12
aa(lp21
g12
ag12
ag12
ag12
ag12
ag12
ag12
ag12
ag12
ag12
ag12
ag12
ag12
ag12
ag12
ag12
ag12
ag12
ag12
ag12
ag12
ag12
ag12
ag12
ag12
ag12
ag12
ag12
ag12
ag12
ag12
ag12
ag12
ag12
ag12
ag12
ag12
ag12
ag12
ag12
ag12
ag12
ag12
ag12
ag12
ag12
ag12
ag12
ag12
ag12
ag12
ag12
ag12
ag12
ag12
ag12
ag12
ag12
ag12
ag12
ag12
ag12
ag12
ag12
ag12
ag12
ag12
ag12
ag12
ag12
ag12
ag12
ag12
ag12
ag12
ag12
ag12
ag12
ag12
aa(lp22
g12
ag12
ag12
ag12
ag12
ag12
ag12
ag12
ag12
ag12
aS'O'
p23
aS'L'
p24
ag23
ag12
ag12
ag12
ag12
ag12
ag12
ag12
ag12
ag12
ag12
ag12
ag12
ag12
ag12
ag12
ag12
ag12
ag12
ag12
ag12
ag12
ag12
ag12
ag12
ag12
ag12
ag12
ag12
ag12
ag12
ag12
ag12
ag12
ag12
ag12
ag12
ag12
ag12
ag12
ag12
ag12
ag12
ag12
ag12
ag12
ag12
ag12
ag12
ag12
ag12
ag12
ag12
ag12
ag12
ag12
ag12
ag12
ag12
ag12
ag12
ag12
ag12
ag12
ag12
ag12
ag12
aa(lp25
g12
ag12
ag12
ag12
ag12
ag12
ag12
ag12
ag12
ag12
ag12
ag12
ag12
ag12
ag12
ag12
ag12
ag12
ag12
ag12
ag12
ag12
ag12
ag12
ag12
ag12
ag12
ag12
ag12
ag12
ag12
ag12
ag12
ag12
ag12
ag12
ag12
ag12
ag12
ag12
ag12
ag12
ag12
ag12
ag12
ag12
ag12
ag12
ag12
ag12
ag12
ag12
ag12
ag12
ag12
ag12
ag12
ag12
ag12
ag12
ag12
ag12
ag12
ag12
ag12
ag12
ag12
ag12
ag12
ag12
ag12
ag12
ag12
ag12
ag12
ag12
ag12
ag12
ag12
aa(lp26
g12
ag12
ag12
ag12
ag12
ag12
ag12
ag12
ag12
ag12
ag12
ag12
ag12
ag12
ag12
ag12
ag12
ag12
ag12
ag12
ag12
ag12
ag12
ag12
ag12
ag12
ag12
ag12
ag12
ag12
ag12
ag12
ag12
ag12
ag12
ag12
ag12
ag12
ag12
ag12
ag12
ag12
ag12
ag12
ag12
ag12
ag12
ag12
ag12
ag12
ag12
ag12
ag12
ag12
ag12
ag12
ag12
ag12
ag12
ag12
ag12
ag12
ag12
ag12
ag12
ag12
ag12
ag12
ag12
ag12
ag12
ag12
ag12
ag12
ag12
ag12
ag12
ag12
ag12
aa(lp27
g12
ag12
ag12
ag12
ag12
ag12
ag12
ag12
ag12
ag12
ag12
ag12
ag12
ag12
ag12
ag12
ag12
ag12
ag12
ag12
ag12
ag12
ag12
ag12
ag12
ag12
ag12
ag12
ag12
ag12
ag12
ag12
ag12
ag12
ag12
ag12
ag12
ag12
ag12
ag12
ag12
ag12
ag12
ag12
ag12
ag12
ag12
ag12
ag12
ag12
ag12
ag12
ag12
ag12
ag12
ag12
ag12
ag12
ag12
ag12
ag12
ag12
ag12
ag12
ag12
ag12
ag12
ag12
ag12
ag12
ag12
ag12
ag12
ag12
ag12
ag12
ag12
ag12
ag12
aa(lp28
g12
ag12
ag12
ag12
ag12
ag12
ag12
ag12
ag12
ag12
ag12
ag12
ag12
ag12
ag12
ag12
ag12
ag12
ag12
ag12
ag12
ag12
ag12
ag12
ag12
ag12
ag12
ag12
ag12
ag12
ag12
ag12
ag12
ag12
ag12
ag12
ag12
ag12
ag12
ag12
ag12
ag12
ag12
ag12
ag12
ag12
ag12
ag12
ag12
ag12
ag12
ag12
ag12
ag12
ag12
ag12
ag12
ag12
ag12
ag12
ag12
ag12
ag12
ag12
ag12
ag12
ag12
ag12
ag12
ag12
ag12
ag12
ag12
ag12
ag12
ag12
ag12
ag12
ag12
aa(lp29
g12
ag12
ag12
ag12
ag12
ag12
ag12
ag12
ag12
ag12
ag12
ag12
ag12
ag12
ag12
ag12
ag12
ag12
ag12
ag12
ag12
ag12
ag12
ag12
ag12
ag12
ag12
ag12
ag12
ag12
ag12
ag12
ag12
ag12
ag12
ag12
ag12
ag12
ag12
ag12
ag12
ag12
ag12
ag12
ag12
ag12
ag12
ag12
ag12
ag12
ag12
ag12
ag12
ag12
ag12
ag12
ag12
ag12
ag12
ag12
ag12
ag12
ag12
ag12
ag12
ag12
ag12
ag12
ag12
ag12
ag12
ag12
ag12
ag12
ag12
ag12
ag12
ag12
ag12
aa(lp30
g12
ag12
ag12
ag12
ag12
ag12
ag12
ag12
ag12
ag12
ag12
ag12
ag12
ag12
ag12
ag12
ag12
ag12
ag12
ag12
ag12
ag12
ag12
ag12
ag12
ag12
ag12
ag12
ag12
ag12
ag12
ag12
ag12
ag12
ag12
ag12
ag12
ag12
ag12
ag12
ag12
ag12
ag12
ag12
ag12
ag12
ag12
ag12
ag12
ag12
ag12
ag12
ag12
ag12
ag12
ag12
ag12
ag12
ag12
ag12
ag12
ag12
ag12
ag12
ag12
ag12
ag12
ag12
ag12
ag12
ag12
ag12
ag12
ag12
ag12
ag12
ag12
ag12
ag12
aa(lp31
g12
ag12
ag12
ag12
ag12
ag12
ag12
ag12
ag12
ag12
ag12
ag12
ag12
ag12
ag12
ag12
ag12
ag12
ag12
ag12
ag12
ag12
ag12
ag12
ag12
ag12
ag12
ag12
ag12
ag12
ag12
ag12
ag12
ag12
ag12
ag12
ag12
ag12
ag12
ag12
ag12
ag12
ag12
ag12
ag12
ag12
ag12
ag12
ag12
ag12
ag12
ag12
ag12
ag12
ag12
ag12
ag12
ag12
ag12
ag12
ag12
ag12
ag12
ag12
ag12
ag12
ag12
ag12
ag12
ag12
ag12
ag12
ag12
ag12
ag12
ag12
ag12
ag12
ag12
aa(lp32
g12
ag12
ag12
ag12
ag12
ag12
ag12
ag12
ag12
ag12
ag12
ag12
ag12
ag12
ag12
ag12
ag12
ag12
ag12
ag12
ag12
ag12
ag12
ag12
ag12
ag12
ag12
ag12
ag12
ag12
ag12
ag12
ag12
ag12
ag12
ag12
ag12
ag12
ag12
ag12
ag12
ag12
ag12
ag12
ag12
ag12
ag12
ag12
ag12
ag12
ag12
ag12
ag12
ag12
ag12
ag12
ag12
ag12
ag12
ag12
ag12
ag12
ag12
ag12
ag12
ag12
ag12
ag12
ag12
ag12
ag12
ag12
ag12
ag12
ag12
ag12
ag12
ag12
ag12
aa(lp33
g12
ag12
ag12
ag12
ag12
ag12
ag12
ag12
ag12
ag12
ag12
ag12
ag12
ag12
ag12
ag12
ag12
ag12
ag12
ag12
ag12
ag12
ag12
ag12
ag12
ag12
ag12
ag12
ag12
ag12
ag12
ag12
ag12
ag12
ag12
ag12
ag12
ag12
ag12
ag12
ag12
ag12
ag12
ag12
ag12
ag12
ag12
ag12
ag12
ag12
ag12
ag12
ag12
ag12
ag12
ag12
ag12
ag12
ag12
ag12
ag12
ag12
ag12
ag12
ag12
ag12
ag12
ag12
ag12
ag12
ag12
ag12
ag12
ag12
ag12
ag12
ag12
ag12
ag12
aa(lp34
g12
ag12
ag12
ag12
ag12
ag12
ag12
ag12
ag12
ag12
ag12
ag12
ag12
ag12
ag12
ag12
ag12
ag12
ag12
ag12
ag12
ag12
ag12
ag12
ag12
ag12
ag12
ag12
ag12
ag12
ag12
ag12
ag12
ag12
ag12
ag12
ag12
ag12
ag12
ag12
ag12
ag12
ag12
ag12
ag12
ag12
ag12
ag12
ag12
ag12
ag12
ag12
ag12
ag12
ag12
ag12
ag12
ag12
ag12
ag12
ag12
ag12
ag12
ag12
ag12
ag12
ag12
ag12
ag12
ag12
ag12
ag12
ag12
ag12
ag12
ag12
ag12
ag12
ag12
aa(lp35
g12
ag12
ag12
ag12
ag12
ag12
ag12
ag12
ag12
ag12
ag12
ag12
ag12
ag12
ag12
ag12
ag12
ag12
ag12
ag12
ag12
ag12
ag12
ag12
ag12
ag12
ag12
ag12
ag12
ag12
ag12
ag12
ag12
ag12
ag12
ag12
ag12
ag12
ag12
ag12
ag12
ag12
ag12
ag12
ag12
ag12
ag12
ag12
ag12
ag12
ag12
ag12
ag12
ag12
ag12
ag12
ag12
ag12
ag12
ag12
ag12
ag12
ag12
ag12
ag12
ag12
ag12
ag12
ag12
ag12
ag12
ag12
ag12
ag12
ag12
ag12
ag12
ag12
ag12
aa(lp36
g12
ag12
ag12
ag12
ag12
ag12
ag12
ag12
ag12
ag12
ag12
ag12
ag12
ag12
ag12
ag12
ag12
ag12
ag12
ag12
ag12
ag12
ag12
ag12
ag12
ag12
ag12
ag12
ag12
ag12
ag12
ag12
ag12
ag12
ag12
ag12
ag12
ag12
ag12
ag12
ag12
ag12
ag12
ag12
ag12
ag12
ag12
ag12
ag12
ag12
ag12
ag12
ag12
ag12
ag12
ag12
ag12
ag12
ag12
ag12
ag12
ag12
ag12
ag12
ag12
ag12
ag12
ag12
ag12
ag12
ag12
ag12
ag12
ag12
ag12
ag12
ag12
ag12
ag12
aa(lp37
g12
ag12
ag12
ag12
ag12
ag12
ag12
ag12
ag12
ag12
ag12
ag12
ag12
ag12
ag12
ag12
ag12
ag12
ag12
ag12
ag12
ag12
ag12
ag12
ag12
ag12
ag12
ag12
ag12
ag12
ag12
ag12
ag12
ag12
ag12
ag12
ag12
ag12
ag12
ag12
ag12
ag12
ag12
ag12
ag12
ag12
ag12
ag12
ag12
ag12
ag12
ag12
ag12
ag12
ag12
ag12
ag12
ag12
ag12
ag12
ag12
ag12
ag12
ag12
ag12
ag12
ag12
ag12
ag12
ag12
ag12
ag12
ag12
ag12
ag12
ag12
ag12
ag12
ag12
aa(lp38
g12
ag12
ag12
ag12
ag12
ag12
ag12
ag12
ag12
ag12
ag12
ag12
ag12
ag12
ag12
ag12
ag12
ag12
ag12
ag12
ag12
ag12
ag12
ag12
ag12
ag12
ag12
ag12
ag12
ag12
ag12
ag12
ag12
ag12
ag12
ag12
ag12
ag12
ag12
ag12
ag12
ag12
ag12
ag12
ag12
ag12
ag12
ag12
ag12
ag12
ag12
ag12
ag12
ag12
ag12
ag12
ag12
ag12
ag12
ag12
ag12
ag12
ag12
ag12
ag12
ag12
ag12
ag12
ag12
ag12
ag12
ag12
ag12
ag12
ag12
ag12
ag12
ag12
ag12
aa(lp39
g12
ag12
ag12
ag12
ag12
ag12
ag12
ag12
ag12
ag12
ag12
ag12
ag12
ag12
ag12
ag12
ag12
ag12
ag12
ag12
ag12
ag12
ag12
ag12
ag12
ag12
ag12
ag12
ag12
ag12
ag12
ag12
ag12
ag12
ag12
ag12
ag12
ag12
ag12
ag12
ag12
ag12
ag12
ag12
ag12
ag12
ag12
ag12
ag12
ag12
ag12
ag12
ag12
ag12
ag12
ag12
ag12
ag12
ag12
ag12
ag12
ag12
ag12
ag12
ag12
ag12
ag12
ag12
ag12
ag12
ag12
ag12
ag12
ag12
ag12
ag12
ag12
ag12
ag12
aa(lp40
g12
ag12
ag12
ag12
ag12
ag12
ag12
ag12
ag12
ag12
ag12
ag12
ag12
ag12
ag12
ag12
ag12
ag12
ag12
ag12
ag12
ag12
ag12
ag12
ag12
ag12
ag12
ag12
ag12
ag12
ag12
ag12
ag12
ag12
ag12
ag12
ag12
ag12
ag12
ag12
ag12
ag12
ag12
ag12
ag12
ag12
ag12
ag12
ag12
ag12
ag12
ag12
ag12
ag12
ag12
ag12
ag12
ag12
ag12
ag12
ag12
ag12
ag12
ag12
ag12
ag12
ag12
ag12
ag12
ag12
ag12
ag12
ag12
ag12
ag12
ag12
ag12
ag12
ag12
aasg3
I79
sg4
I23
sbsS'frames'
p41
(lp42
(i__main__
Frame
p43
(dp44
g9
(lp45
(lp46
g12
ag12
ag12
ag12
ag12
ag12
ag12
ag12
ag12
ag12
ag12
ag12
ag12
ag12
ag12
ag12
ag12
ag12
ag12
ag12
ag12
ag12
ag12
ag12
ag12
ag12
ag12
ag12
ag12
ag12
ag12
ag12
ag12
ag12
ag12
ag12
ag12
ag12
ag12
ag12
ag12
ag12
ag12
ag12
ag12
ag12
ag12
ag12
ag12
ag12
ag12
ag12
ag12
ag12
ag12
ag12
ag12
ag12
ag12
ag12
ag12
ag12
ag12
ag12
ag12
ag12
ag12
ag12
ag12
ag12
ag12
ag12
ag12
ag12
ag12
ag12
ag12
ag12
ag12
aa(lp47
g12
ag12
ag12
ag12
ag12
ag12
ag12
ag12
ag12
ag12
ag12
ag12
ag12
ag12
ag12
ag12
ag12
ag12
ag12
ag12
ag12
ag12
ag12
ag12
ag12
ag12
ag12
ag12
ag12
ag12
ag12
ag12
ag12
ag12
ag12
ag12
ag12
ag12
ag12
ag12
ag12
ag12
ag12
ag12
ag12
ag12
ag12
ag12
ag12
ag12
ag12
ag12
ag12
ag12
ag12
ag12
ag12
ag12
ag12
ag12
ag12
ag12
ag12
ag12
ag12
ag12
ag12
ag12
ag12
ag12
ag12
ag12
ag12
ag12
ag12
ag12
ag12
ag12
ag12
aa(lp48
g12
ag12
ag12
ag12
ag12
ag12
ag12
ag12
ag12
ag12
ag12
ag12
ag12
ag12
ag12
ag12
ag12
ag12
ag12
ag12
ag12
ag12
ag12
ag12
ag12
ag12
ag12
ag12
ag12
ag12
ag12
ag12
ag12
ag12
ag12
ag12
ag12
ag12
ag12
ag12
ag12
ag12
ag12
ag12
ag12
ag12
ag12
ag12
ag12
ag12
ag12
ag12
ag12
ag12
ag12
ag12
ag12
ag12
ag12
ag12
ag12
ag12
ag12
ag12
ag12
ag12
ag12
ag12
ag12
ag12
ag12
ag12
ag12
ag12
ag12
ag12
ag12
ag12
ag12
aa(lp49
g12
ag12
ag12
ag19
ag16
ag17
ag18
ag19
ag16
ag12
ag12
ag12
ag12
ag12
ag12
ag12
ag12
ag12
ag12
ag12
ag12
ag12
ag12
ag12
ag12
ag12
ag12
ag12
ag12
ag12
ag12
ag12
ag12
ag12
ag12
ag12
ag12
ag12
ag12
ag12
ag12
ag12
ag12
ag12
ag12
ag12
ag12
ag12
ag12
ag12
ag12
ag12
ag12
ag12
ag12
ag12
ag12
ag12
ag12
ag12
ag12
ag12
ag12
ag12
ag12
ag12
ag12
ag12
ag12
ag12
ag12
ag12
ag12
ag12
ag12
ag12
ag12
ag12
ag12
aa(lp50
g12
ag12
ag12
ag12
ag12
ag12
ag12
ag12
ag12
ag12
ag12
ag12
ag12
ag12
ag12
ag12
ag12
ag12
ag12
ag12
ag12
ag12
ag12
ag12
ag12
ag12
ag12
ag12
ag12
ag12
ag12
ag12
ag12
ag12
ag12
ag12
ag12
ag12
ag12
ag12
ag12
ag12
ag12
ag12
ag12
ag12
ag12
ag12
ag12
ag12
ag12
ag12
ag12
ag12
ag12
ag12
ag12
ag12
ag12
ag12
ag12
ag12
ag12
ag12
ag12
ag12
ag12
ag12
ag12
ag12
ag12
ag12
ag12
ag12
ag12
ag12
ag12
ag12
ag12
aa(lp51
g12
ag12
ag12
ag12
ag12
ag12
ag12
ag12
ag12
ag12
ag12
ag12
ag12
ag12
ag12
ag12
ag12
ag12
ag12
ag12
ag12
ag12
ag12
ag12
ag12
ag12
ag12
ag12
ag12
ag12
ag12
ag12
ag12
ag12
ag12
ag12
ag12
ag12
ag12
ag12
ag12
ag12
ag12
ag12
ag12
ag12
ag12
ag12
ag12
ag12
ag12
ag12
ag12
ag12
ag12
ag12
ag12
ag12
ag12
ag12
ag12
ag12
ag12
ag12
ag12
ag12
ag12
ag12
ag12
ag12
ag12
ag12
ag12
ag12
ag12
ag12
ag12
ag12
ag12
aa(lp52
g12
ag12
ag12
ag12
ag12
ag12
ag12
ag12
ag12
ag12
ag24
ag23
ag24
ag12
ag12
ag12
ag12
ag12
ag12
ag12
ag12
ag12
ag12
ag12
ag12
ag12
ag12
ag12
ag12
ag12
ag12
ag12
ag12
ag12
ag12
ag12
ag12
ag12
ag12
ag12
ag12
ag12
ag12
ag12
ag12
ag12
ag12
ag12
ag12
ag12
ag12
ag12
ag12
ag12
ag12
ag12
ag12
ag12
ag12
ag12
ag12
ag12
ag12
ag12
ag12
ag12
ag12
ag12
ag12
ag12
ag12
ag12
ag12
ag12
ag12
ag12
ag12
ag12
ag12
aa(lp53
g12
ag12
ag12
ag12
ag12
ag12
ag12
ag12
ag12
ag12
ag12
ag12
ag12
ag12
ag12
ag12
ag12
ag12
ag12
ag12
ag12
ag12
ag12
ag12
ag12
ag12
ag12
ag12
ag12
ag12
ag12
ag12
ag12
ag12
ag12
ag12
ag12
ag12
ag12
ag12
ag12
ag12
ag12
ag12
ag12
ag12
ag12
ag12
ag12
ag12
ag12
ag12
ag12
ag12
ag12
ag12
ag12
ag12
ag12
ag12
ag12
ag12
ag12
ag12
ag12
ag12
ag12
ag12
ag12
ag12
ag12
ag12
ag12
ag12
ag12
ag12
ag12
ag12
ag12
aa(lp54
g12
ag12
ag12
ag12
ag12
ag12
ag12
ag12
ag12
ag12
ag12
ag12
ag12
ag12
ag12
ag12
ag12
ag12
ag12
ag12
ag12
ag12
ag12
ag12
ag12
ag12
ag12
ag12
ag12
ag12
ag12
ag12
ag12
ag12
ag12
ag12
ag12
ag12
ag12
ag12
ag12
ag12
ag12
ag12
ag12
ag12
ag12
ag12
ag12
ag12
ag12
ag12
ag12
ag12
ag12
ag12
ag12
ag12
ag12
ag12
ag12
ag12
ag12
ag12
ag12
ag12
ag12
ag12
ag12
ag12
ag12
ag12
ag12
ag12
ag12
ag12
ag12
ag12
ag12
aa(lp55
g12
ag12
ag12
ag12
ag12
ag12
ag12
ag12
ag12
ag12
ag12
ag12
ag12
ag12
ag12
ag12
ag12
ag12
ag12
ag12
ag12
ag12
ag12
ag12
ag12
ag12
ag12
ag12
ag12
ag12
ag12
ag12
ag12
ag12
ag12
ag12
ag12
ag12
ag12
ag12
ag12
ag12
ag12
ag12
ag12
ag12
ag12
ag12
ag12
ag12
ag12
ag12
ag12
ag12
ag12
ag12
ag12
ag12
ag12
ag12
ag12
ag12
ag12
ag12
ag12
ag12
ag12
ag12
ag12
ag12
ag12
ag12
ag12
ag12
ag12
ag12
ag12
ag12
ag12
aa(lp56
g12
ag12
ag12
ag12
ag12
ag12
ag12
ag12
ag12
ag12
ag12
ag12
ag12
ag12
ag12
ag12
ag12
ag12
ag12
ag12
ag12
ag12
ag12
ag12
ag12
ag12
ag12
ag12
ag12
ag12
ag12
ag12
ag12
ag12
ag12
ag12
ag12
ag12
ag12
ag12
ag12
ag12
ag12
ag12
ag12
ag12
ag12
ag12
ag12
ag12
ag12
ag12
ag12
ag12
ag12
ag12
ag12
ag12
ag12
ag12
ag12
ag12
ag12
ag12
ag12
ag12
ag12
ag12
ag12
ag12
ag12
ag12
ag12
ag12
ag12
ag12
ag12
ag12
ag12
aa(lp57
g12
ag12
ag12
ag12
ag12
ag12
ag12
ag12
ag12
ag12
ag12
ag12
ag12
ag12
ag12
ag12
ag12
ag12
ag12
ag12
ag12
ag12
ag12
ag12
ag12
ag12
ag12
ag12
ag12
ag12
ag12
ag12
ag12
ag12
ag12
ag12
ag12
ag12
ag12
ag12
ag12
ag12
ag12
ag12
ag12
ag12
ag12
ag12
ag12
ag12
ag12
ag12
ag12
ag12
ag12
ag12
ag12
ag12
ag12
ag12
ag12
ag12
ag12
ag12
ag12
ag12
ag12
ag12
ag12
ag12
ag12
ag12
ag12
ag12
ag12
ag12
ag12
ag12
ag12
aa(lp58
g12
ag12
ag12
ag12
ag12
ag12
ag12
ag12
ag12
ag12
ag12
ag12
ag12
ag12
ag12
ag12
ag12
ag12
ag12
ag12
ag12
ag12
ag12
ag12
ag12
ag12
ag12
ag12
ag12
ag12
ag12
ag12
ag12
ag12
ag12
ag12
ag12
ag12
ag12
ag12
ag12
ag12
ag12
ag12
ag12
ag12
ag12
ag12
ag12
ag12
ag12
ag12
ag12
ag12
ag12
ag12
ag12
ag12
ag12
ag12
ag12
ag12
ag12
ag12
ag12
ag12
ag12
ag12
ag12
ag12
ag12
ag12
ag12
ag12
ag12
ag12
ag12
ag12
ag12
aa(lp59
g12
ag12
ag12
ag12
ag12
ag12
ag12
ag12
ag12
ag12
ag12
ag12
ag12
ag12
ag12
ag12
ag12
ag12
ag12
ag12
ag12
ag12
ag12
ag12
ag12
ag12
ag12
ag12
ag12
ag12
ag12
ag12
ag12
ag12
ag12
ag12
ag12
ag12
ag12
ag12
ag12
ag12
ag12
ag12
ag12
ag12
ag12
ag12
ag12
ag12
ag12
ag12
ag12
ag12
ag12
ag12
ag12
ag12
ag12
ag12
ag12
ag12
ag12
ag12
ag12
ag12
ag12
ag12
ag12
ag12
ag12
ag12
ag12
ag12
ag12
ag12
ag12
ag12
ag12
aa(lp60
g12
ag12
ag12
ag12
ag12
ag12
ag12
ag12
ag12
ag12
ag12
ag12
ag12
ag12
ag12
ag12
ag12
ag12
ag12
ag12
ag12
ag12
ag12
ag12
ag12
ag12
ag12
ag12
ag12
ag12
ag12
ag12
ag12
ag12
ag12
ag12
ag12
ag12
ag12
ag12
ag12
ag12
ag12
ag12
ag12
ag12
ag12
ag12
ag12
ag12
ag12
ag12
ag12
ag12
ag12
ag12
ag12
ag12
ag12
ag12
ag12
ag12
ag12
ag12
ag12
ag12
ag12
ag12
ag12
ag12
ag12
ag12
ag12
ag12
ag12
ag12
ag12
ag12
ag12
aa(lp61
g12
ag12
ag12
ag12
ag12
ag12
ag12
ag12
ag12
ag12
ag12
ag12
ag12
ag12
ag12
ag12
ag12
ag12
ag12
ag12
ag12
ag12
ag12
ag12
ag12
ag12
ag12
ag12
ag12
ag12
ag12
ag12
ag12
ag12
ag12
ag12
ag12
ag12
ag12
ag12
ag12
ag12
ag12
ag12
ag12
ag12
ag12
ag12
ag12
ag12
ag12
ag12
ag12
ag12
ag12
ag12
ag12
ag12
ag12
ag12
ag12
ag12
ag12
ag12
ag12
ag12
ag12
ag12
ag12
ag12
ag12
ag12
ag12
ag12
ag12
ag12
ag12
ag12
ag12
aa(lp62
g12
ag12
ag12
ag12
ag12
ag12
ag12
ag12
ag12
ag12
ag12
ag12
ag12
ag12
ag12
ag12
ag12
ag12
ag12
ag12
ag12
ag12
ag12
ag12
ag12
ag12
ag12
ag12
ag12
ag12
ag12
ag12
ag12
ag12
ag12
ag12
ag12
ag12
ag12
ag12
ag12
ag12
ag12
ag12
ag12
ag12
ag12
ag12
ag12
ag12
ag12
ag12
ag12
ag12
ag12
ag12
ag12
ag12
ag12
ag12
ag12
ag12
ag12
ag12
ag12
ag12
ag12
ag12
ag12
ag12
ag12
ag12
ag12
ag12
ag12
ag12
ag12
ag12
ag12
aa(lp63
g12
ag12
ag12
ag12
ag12
ag12
ag12
ag12
ag12
ag12
ag12
ag12
ag12
ag12
ag12
ag12
ag12
ag12
ag12
ag12
ag12
ag12
ag12
ag12
ag12
ag12
ag12
ag12
ag12
ag12
ag12
ag12
ag12
ag12
ag12
ag12
ag12
ag12
ag12
ag12
ag12
ag12
ag12
ag12
ag12
ag12
ag12
ag12
ag12
ag12
ag12
ag12
ag12
ag12
ag12
ag12
ag12
ag12
ag12
ag12
ag12
ag12
ag12
ag12
ag12
ag12
ag12
ag12
ag12
ag12
ag12
ag12
ag12
ag12
ag12
ag12
ag12
ag12
ag12
aa(lp64
g12
ag12
ag12
ag12
ag12
ag12
ag12
ag12
ag12
ag12
ag12
ag12
ag12
ag12
ag12
ag12
ag12
ag12
ag12
ag12
ag12
ag12
ag12
ag12
ag12
ag12
ag12
ag12
ag12
ag12
ag12
ag12
ag12
ag12
ag12
ag12
ag12
ag12
ag12
ag12
ag12
ag12
ag12
ag12
ag12
ag12
ag12
ag12
ag12
ag12
ag12
ag12
ag12
ag12
ag12
ag12
ag12
ag12
ag12
ag12
ag12
ag12
ag12
ag12
ag12
ag12
ag12
ag12
ag12
ag12
ag12
ag12
ag12
ag12
ag12
ag12
ag12
ag12
ag12
aa(lp65
g12
ag12
ag12
ag12
ag12
ag12
ag12
ag12
ag12
ag12
ag12
ag12
ag12
ag12
ag12
ag12
ag12
ag12
ag12
ag12
ag12
ag12
ag12
ag12
ag12
ag12
ag12
ag12
ag12
ag12
ag12
ag12
ag12
ag12
ag12
ag12
ag12
ag12
ag12
ag12
ag12
ag12
ag12
ag12
ag12
ag12
ag12
ag12
ag12
ag12
ag12
ag12
ag12
ag12
ag12
ag12
ag12
ag12
ag12
ag12
ag12
ag12
ag12
ag12
ag12
ag12
ag12
ag12
ag12
ag12
ag12
ag12
ag12
ag12
ag12
ag12
ag12
ag12
ag12
aa(lp66
g12
ag12
ag12
ag12
ag12
ag12
ag12
ag12
ag12
ag12
ag12
ag12
ag12
ag12
ag12
ag12
ag12
ag12
ag12
ag12
ag12
ag12
ag12
ag12
ag12
ag12
ag12
ag12
ag12
ag12
ag12
ag12
ag12
ag12
ag12
ag12
ag12
ag12
ag12
ag12
ag12
ag12
ag12
ag12
ag12
ag12
ag12
ag12
ag12
ag12
ag12
ag12
ag12
ag12
ag12
ag12
ag12
ag12
ag12
ag12
ag12
ag12
ag12
ag12
ag12
ag12
ag12
ag12
ag12
ag12
ag12
ag12
ag12
ag12
ag12
ag12
ag12
ag12
ag12
aa(lp67
g12
ag12
ag12
ag12
ag12
ag12
ag12
ag12
ag12
ag12
ag12
ag12
ag12
ag12
ag12
ag12
ag12
ag12
ag12
ag12
ag12
ag12
ag12
ag12
ag12
ag12
ag12
ag12
ag12
ag12
ag12
ag12
ag12
ag12
ag12
ag12
ag12
ag12
ag12
ag12
ag12
ag12
ag12
ag12
ag12
ag12
ag12
ag12
ag12
ag12
ag12
ag12
ag12
ag12
ag12
ag12
ag12
ag12
ag12
ag12
ag12
ag12
ag12
ag12
ag12
ag12
ag12
ag12
ag12
ag12
ag12
ag12
ag12
ag12
ag12
ag12
ag12
ag12
ag12
aa(lp68
g12
ag12
ag12
ag12
ag12
ag12
ag12
ag12
ag12
ag12
ag12
ag12
ag12
ag12
ag12
ag12
ag12
ag12
ag12
ag12
ag12
ag12
ag12
ag12
ag12
ag12
ag12
ag12
ag12
ag12
ag12
ag12
ag12
ag12
ag12
ag12
ag12
ag12
ag12
ag12
ag12
ag12
ag12
ag12
ag12
ag12
ag12
ag12
ag12
ag12
ag12
ag12
ag12
ag12
ag12
ag12
ag12
ag12
ag12
ag12
ag12
ag12
ag12
ag12
ag12
ag12
ag12
ag12
ag12
ag12
ag12
ag12
ag12
ag12
ag12
ag12
ag12
ag12
ag12
aasg3
I79
sg4
I23
sbag7
a(i__main__
Frame
p69
(dp70
g9
(lp71
(lp72
g12
ag12
ag12
ag12
ag12
ag12
ag12
ag12
ag12
ag12
ag12
ag12
ag12
ag12
ag12
ag12
ag12
ag12
ag12
ag12
ag12
ag12
ag12
ag12
ag12
ag12
ag12
ag12
ag12
ag12
ag12
ag12
ag12
ag12
ag12
ag12
ag12
ag12
ag12
ag12
ag12
ag12
ag12
ag12
ag12
ag12
ag12
ag12
ag12
ag12
ag12
ag12
ag12
ag12
ag12
ag12
ag12
ag12
ag12
ag12
ag12
ag12
ag12
ag12
ag12
ag12
ag12
ag12
ag12
ag12
ag12
ag12
ag12
ag12
ag12
ag12
ag12
ag12
ag12
aa(lp73
g12
ag12
ag12
ag12
ag12
ag12
ag12
ag12
ag12
ag12
ag12
ag12
ag12
ag12
ag12
ag12
ag12
ag12
ag12
ag12
ag12
ag12
ag12
ag12
ag12
ag12
ag12
ag12
ag12
ag12
ag12
ag12
ag12
ag12
ag12
ag12
ag12
ag12
ag12
ag12
ag12
ag12
ag12
ag12
ag12
ag12
ag12
ag12
ag12
ag12
ag12
ag12
ag12
ag12
ag12
ag12
ag12
ag12
ag12
ag12
ag12
ag12
ag12
ag12
ag12
ag12
ag12
ag12
ag12
ag12
ag12
ag12
ag12
ag12
ag12
ag12
ag12
ag12
ag12
aa(lp74
g12
ag12
ag12
ag12
ag12
ag12
ag12
ag12
ag12
ag12
ag12
ag12
ag12
ag12
ag12
ag12
ag12
ag12
ag12
ag12
ag12
ag12
ag12
ag12
ag12
ag12
ag12
ag12
ag12
ag12
ag12
ag12
ag12
ag12
ag12
ag12
ag12
ag12
ag12
ag12
ag12
ag12
ag12
ag12
ag12
ag12
ag12
ag12
ag12
ag12
ag12
ag12
ag12
ag12
ag12
ag12
ag12
ag12
ag12
ag12
ag12
ag12
ag12
ag12
ag12
ag12
ag12
ag12
ag12
ag12
ag12
ag12
ag12
ag12
ag12
ag12
ag12
ag12
ag12
aa(lp75
g12
ag12
ag12
ag17
ag18
ag19
ag16
ag17
ag18
ag12
ag12
ag12
ag12
ag12
ag12
ag12
ag12
ag12
ag12
ag12
ag12
ag12
ag12
ag12
ag12
ag12
ag12
ag12
ag12
ag12
ag12
ag12
ag12
ag12
ag12
ag12
ag12
ag12
ag12
ag12
ag12
ag12
ag12
ag12
ag12
ag12
ag12
ag12
ag12
ag12
ag12
ag12
ag12
ag12
ag12
ag12
ag12
ag12
ag12
ag12
ag12
ag12
ag12
ag12
ag12
ag12
ag12
ag12
ag12
ag12
ag12
ag12
ag12
ag12
ag12
ag12
ag12
ag12
ag12
aa(lp76
g12
ag12
ag12
ag12
ag12
ag12
ag12
ag12
ag12
ag12
ag12
ag12
ag12
ag12
ag12
ag12
ag12
ag12
ag12
ag12
ag12
ag12
ag12
ag12
ag12
ag12
ag12
ag12
ag12
ag12
ag12
ag12
ag12
ag12
ag12
ag12
ag12
ag12
ag12
ag12
ag12
ag12
ag12
ag12
ag12
ag12
ag12
ag12
ag12
ag12
ag12
ag12
ag12
ag12
ag12
ag12
ag12
ag12
ag12
ag12
ag12
ag12
ag12
ag12
ag12
ag12
ag12
ag12
ag12
ag12
ag12
ag12
ag12
ag12
ag12
ag12
ag12
ag12
ag12
aa(lp77
g12
ag12
ag12
ag12
ag12
ag12
ag12
ag12
ag12
ag12
ag12
ag12
ag12
ag12
ag12
ag12
ag12
ag12
ag12
ag12
ag12
ag12
ag12
ag12
ag12
ag12
ag12
ag12
ag12
ag12
ag12
ag12
ag12
ag12
ag12
ag12
ag12
ag12
ag12
ag12
ag12
ag12
ag12
ag12
ag12
ag12
ag12
ag12
ag12
ag12
ag12
ag12
ag12
ag12
ag12
ag12
ag12
ag12
ag12
ag12
ag12
ag12
ag12
ag12
ag12
ag12
ag12
ag12
ag12
ag12
ag12
ag12
ag12
ag12
ag12
ag12
ag12
ag12
ag12
aa(lp78
g12
ag12
ag12
ag12
ag12
ag12
ag12
ag12
ag12
ag12
ag24
ag23
ag24
ag12
ag12
ag12
ag12
ag12
ag12
ag12
ag12
ag12
ag12
ag12
ag12
ag12
ag12
ag12
ag12
ag12
ag12
ag12
ag12
ag12
ag12
ag12
ag12
ag12
ag12
ag12
ag12
ag12
ag12
ag12
ag12
ag12
ag12
ag12
ag12
ag12
ag12
ag12
ag12
ag12
ag12
ag12
ag12
ag12
ag12
ag12
ag12
ag12
ag12
ag12
ag12
ag12
ag12
ag12
ag12
ag12
ag12
ag12
ag12
ag12
ag12
ag12
ag12
ag12
ag12
aa(lp79
g12
ag12
ag12
ag12
ag12
ag12
ag12
ag12
ag12
ag12
ag12
ag12
ag12
ag12
ag12
ag12
ag12
ag12
ag12
ag12
ag12
ag12
ag12
ag12
ag12
ag12
ag12
ag12
ag12
ag12
ag12
ag12
ag12
ag12
ag12
ag12
ag12
ag12
ag12
ag12
ag12
ag12
ag12
ag12
ag12
ag12
ag12
ag12
ag12
ag12
ag12
ag12
ag12
ag12
ag12
ag12
ag12
ag12
ag12
ag12
ag12
ag12
ag12
ag12
ag12
ag12
ag12
ag12
ag12
ag12
ag12
ag12
ag12
ag12
ag12
ag12
ag12
ag12
ag12
aa(lp80
g12
ag12
ag12
ag12
ag12
ag12
ag12
ag12
ag12
ag12
ag12
ag12
ag12
ag12
ag12
ag12
ag12
ag12
ag12
ag12
ag12
ag12
ag12
ag12
ag12
ag12
ag12
ag12
ag12
ag12
ag12
ag12
ag12
ag12
ag12
ag12
ag12
ag12
ag12
ag12
ag12
ag12
ag12
ag12
ag12
ag12
ag12
ag12
ag12
ag12
ag12
ag12
ag12
ag12
ag12
ag12
ag12
ag12
ag12
ag12
ag12
ag12
ag12
ag12
ag12
ag12
ag12
ag12
ag12
ag12
ag12
ag12
ag12
ag12
ag12
ag12
ag12
ag12
ag12
aa(lp81
g12
ag12
ag12
ag12
ag12
ag12
ag12
ag12
ag12
ag12
ag12
ag12
ag12
ag12
ag12
ag12
ag12
ag12
ag12
ag12
ag12
ag12
ag12
ag12
ag12
ag12
ag12
ag12
ag12
ag12
ag12
ag12
ag12
ag12
ag12
ag12
ag12
ag12
ag12
ag12
ag12
ag12
ag12
ag12
ag12
ag12
ag12
ag12
ag12
ag12
ag12
ag12
ag12
ag12
ag12
ag12
ag12
ag12
ag12
ag12
ag12
ag12
ag12
ag12
ag12
ag12
ag12
ag12
ag12
ag12
ag12
ag12
ag12
ag12
ag12
ag12
ag12
ag12
ag12
aa(lp82
g12
ag12
ag12
ag12
ag12
ag12
ag12
ag12
ag12
ag12
ag12
ag12
ag12
ag12
ag12
ag12
ag12
ag12
ag12
ag12
ag12
ag12
ag12
ag12
ag12
ag12
ag12
ag12
ag12
ag12
ag12
ag12
ag12
ag12
ag12
ag12
ag12
ag12
ag12
ag12
ag12
ag12
ag12
ag12
ag12
ag12
ag12
ag12
ag12
ag12
ag12
ag12
ag12
ag12
ag12
ag12
ag12
ag12
ag12
ag12
ag12
ag12
ag12
ag12
ag12
ag12
ag12
ag12
ag12
ag12
ag12
ag12
ag12
ag12
ag12
ag12
ag12
ag12
ag12
aa(lp83
g12
ag12
ag12
ag12
ag12
ag12
ag12
ag12
ag12
ag12
ag12
ag12
ag12
ag12
ag12
ag12
ag12
ag12
ag12
ag12
ag12
ag12
ag12
ag12
ag12
ag12
ag12
ag12
ag12
ag12
ag12
ag12
ag12
ag12
ag12
ag12
ag12
ag12
ag12
ag12
ag12
ag12
ag12
ag12
ag12
ag12
ag12
ag12
ag12
ag12
ag12
ag12
ag12
ag12
ag12
ag12
ag12
ag12
ag12
ag12
ag12
ag12
ag12
ag12
ag12
ag12
ag12
ag12
ag12
ag12
ag12
ag12
ag12
ag12
ag12
ag12
ag12
ag12
ag12
aa(lp84
g12
ag12
ag12
ag12
ag12
ag12
ag12
ag12
ag12
ag12
ag12
ag12
ag12
ag12
ag12
ag12
ag12
ag12
ag12
ag12
ag12
ag12
ag12
ag12
ag12
ag12
ag12
ag12
ag12
ag12
ag12
ag12
ag12
ag12
ag12
ag12
ag12
ag12
ag12
ag12
ag12
ag12
ag12
ag12
ag12
ag12
ag12
ag12
ag12
ag12
ag12
ag12
ag12
ag12
ag12
ag12
ag12
ag12
ag12
ag12
ag12
ag12
ag12
ag12
ag12
ag12
ag12
ag12
ag12
ag12
ag12
ag12
ag12
ag12
ag12
ag12
ag12
ag12
ag12
aa(lp85
g12
ag12
ag12
ag12
ag12
ag12
ag12
ag12
ag12
ag12
ag12
ag12
ag12
ag12
ag12
ag12
ag12
ag12
ag12
ag12
ag12
ag12
ag12
ag12
ag12
ag12
ag12
ag12
ag12
ag12
ag12
ag12
ag12
ag12
ag12
ag12
ag12
ag12
ag12
ag12
ag12
ag12
ag12
ag12
ag12
ag12
ag12
ag12
ag12
ag12
ag12
ag12
ag12
ag12
ag12
ag12
ag12
ag12
ag12
ag12
ag12
ag12
ag12
ag12
ag12
ag12
ag12
ag12
ag12
ag12
ag12
ag12
ag12
ag12
ag12
ag12
ag12
ag12
ag12
aa(lp86
g12
ag12
ag12
ag12
ag12
ag12
ag12
ag12
ag12
ag12
ag12
ag12
ag12
ag12
ag12
ag12
ag12
ag12
ag12
ag12
ag12
ag12
ag12
ag12
ag12
ag12
ag12
ag12
ag12
ag12
ag12
ag12
ag12
ag12
ag12
ag12
ag12
ag12
ag12
ag12
ag12
ag12
ag12
ag12
ag12
ag12
ag12
ag12
ag12
ag12
ag12
ag12
ag12
ag12
ag12
ag12
ag12
ag12
ag12
ag12
ag12
ag12
ag12
ag12
ag12
ag12
ag12
ag12
ag12
ag12
ag12
ag12
ag12
ag12
ag12
ag12
ag12
ag12
ag12
aa(lp87
g12
ag12
ag12
ag12
ag12
ag12
ag12
ag12
ag12
ag12
ag12
ag12
ag12
ag12
ag12
ag12
ag12
ag12
ag12
ag12
ag12
ag12
ag12
ag12
ag12
ag12
ag12
ag12
ag12
ag12
ag12
ag12
ag12
ag12
ag12
ag12
ag12
ag12
ag12
ag12
ag12
ag12
ag12
ag12
ag12
ag12
ag12
ag12
ag12
ag12
ag12
ag12
ag12
ag12
ag12
ag12
ag12
ag12
ag12
ag12
ag12
ag12
ag12
ag12
ag12
ag12
ag12
ag12
ag12
ag12
ag12
ag12
ag12
ag12
ag12
ag12
ag12
ag12
ag12
aa(lp88
g12
ag12
ag12
ag12
ag12
ag12
ag12
ag12
ag12
ag12
ag12
ag12
ag12
ag12
ag12
ag12
ag12
ag12
ag12
ag12
ag12
ag12
ag12
ag12
ag12
ag12
ag12
ag12
ag12
ag12
ag12
ag12
ag12
ag12
ag12
ag12
ag12
ag12
ag12
ag12
ag12
ag12
ag12
ag12
ag12
ag12
ag12
ag12
ag12
ag12
ag12
ag12
ag12
ag12
ag12
ag12
ag12
ag12
ag12
ag12
ag12
ag12
ag12
ag12
ag12
ag12
ag12
ag12
ag12
ag12
ag12
ag12
ag12
ag12
ag12
ag12
ag12
ag12
ag12
aa(lp89
g12
ag12
ag12
ag12
ag12
ag12
ag12
ag12
ag12
ag12
ag12
ag12
ag12
ag12
ag12
ag12
ag12
ag12
ag12
ag12
ag12
ag12
ag12
ag12
ag12
ag12
ag12
ag12
ag12
ag12
ag12
ag12
ag12
ag12
ag12
ag12
ag12
ag12
ag12
ag12
ag12
ag12
ag12
ag12
ag12
ag12
ag12
ag12
ag12
ag12
ag12
ag12
ag12
ag12
ag12
ag12
ag12
ag12
ag12
ag12
ag12
ag12
ag12
ag12
ag12
ag12
ag12
ag12
ag12
ag12
ag12
ag12
ag12
ag12
ag12
ag12
ag12
ag12
ag12
aa(lp90
g12
ag12
ag12
ag12
ag12
ag12
ag12
ag12
ag12
ag12
ag12
ag12
ag12
ag12
ag12
ag12
ag12
ag12
ag12
ag12
ag12
ag12
ag12
ag12
ag12
ag12
ag12
ag12
ag12
ag12
ag12
ag12
ag12
ag12
ag12
ag12
ag12
ag12
ag12
ag12
ag12
ag12
ag12
ag12
ag12
ag12
ag12
ag12
ag12
ag12
ag12
ag12
ag12
ag12
ag12
ag12
ag12
ag12
ag12
ag12
ag12
ag12
ag12
ag12
ag12
ag12
ag12
ag12
ag12
ag12
ag12
ag12
ag12
ag12
ag12
ag12
ag12
ag12
ag12
aa(lp91
g12
ag12
ag12
ag12
ag12
ag12
ag12
ag12
ag12
ag12
ag12
ag12
ag12
ag12
ag12
ag12
ag12
ag12
ag12
ag12
ag12
ag12
ag12
ag12
ag12
ag12
ag12
ag12
ag12
ag12
ag12
ag12
ag12
ag12
ag12
ag12
ag12
ag12
ag12
ag12
ag12
ag12
ag12
ag12
ag12
ag12
ag12
ag12
ag12
ag12
ag12
ag12
ag12
ag12
ag12
ag12
ag12
ag12
ag12
ag12
ag12
ag12
ag12
ag12
ag12
ag12
ag12
ag12
ag12
ag12
ag12
ag12
ag12
ag12
ag12
ag12
ag12
ag12
ag12
aa(lp92
g12
ag12
ag12
ag12
ag12
ag12
ag12
ag12
ag12
ag12
ag12
ag12
ag12
ag12
ag12
ag12
ag12
ag12
ag12
ag12
ag12
ag12
ag12
ag12
ag12
ag12
ag12
ag12
ag12
ag12
ag12
ag12
ag12
ag12
ag12
ag12
ag12
ag12
ag12
ag12
ag12
ag12
ag12
ag12
ag12
ag12
ag12
ag12
ag12
ag12
ag12
ag12
ag12
ag12
ag12
ag12
ag12
ag12
ag12
ag12
ag12
ag12
ag12
ag12
ag12
ag12
ag12
ag12
ag12
ag12
ag12
ag12
ag12
ag12
ag12
ag12
ag12
ag12
ag12
aa(lp93
g12
ag12
ag12
ag12
ag12
ag12
ag12
ag12
ag12
ag12
ag12
ag12
ag12
ag12
ag12
ag12
ag12
ag12
ag12
ag12
ag12
ag12
ag12
ag12
ag12
ag12
ag12
ag12
ag12
ag12
ag12
ag12
ag12
ag12
ag12
ag12
ag12
ag12
ag12
ag12
ag12
ag12
ag12
ag12
ag12
ag12
ag12
ag12
ag12
ag12
ag12
ag12
ag12
ag12
ag12
ag12
ag12
ag12
ag12
ag12
ag12
ag12
ag12
ag12
ag12
ag12
ag12
ag12
ag12
ag12
ag12
ag12
ag12
ag12
ag12
ag12
ag12
ag12
ag12
aa(lp94
g12
ag12
ag12
ag12
ag12
ag12
ag12
ag12
ag12
ag12
ag12
ag12
ag12
ag12
ag12
ag12
ag12
ag12
ag12
ag12
ag12
ag12
ag12
ag12
ag12
ag12
ag12
ag12
ag12
ag12
ag12
ag12
ag12
ag12
ag12
ag12
ag12
ag12
ag12
ag12
ag12
ag12
ag12
ag12
ag12
ag12
ag12
ag12
ag12
ag12
ag12
ag12
ag12
ag12
ag12
ag12
ag12
ag12
ag12
ag12
ag12
ag12
ag12
ag12
ag12
ag12
ag12
ag12
ag12
ag12
ag12
ag12
ag12
ag12
ag12
ag12
ag12
ag12
ag12
aasg3
I79
sg4
I23
sba(i__main__
Frame
p95
(dp96
g9
(lp97
(lp98
g12
ag12
ag12
ag12
ag12
ag12
ag12
ag12
ag12
ag12
ag12
ag12
ag12
ag12
ag12
ag12
ag12
ag12
ag12
ag12
ag12
ag12
ag12
ag12
ag12
ag12
ag12
ag12
ag12
ag12
ag12
ag12
ag12
ag12
ag12
ag12
ag12
ag12
ag12
ag12
ag12
ag12
ag12
ag12
ag12
ag12
ag12
ag12
ag12
ag12
ag12
ag12
ag12
ag12
ag12
ag12
ag12
ag12
ag12
ag12
ag12
ag12
ag12
ag12
ag12
ag12
ag12
ag12
ag12
ag12
ag12
ag12
ag12
ag12
ag12
ag12
ag12
ag12
ag12
aa(lp99
g12
ag12
ag12
ag12
ag12
ag12
ag12
ag12
ag12
ag12
ag12
ag12
ag12
ag12
ag12
ag12
ag12
ag12
ag12
ag12
ag12
ag12
ag12
ag12
ag12
ag12
ag12
ag12
ag12
ag12
ag12
ag12
ag12
ag12
ag12
ag12
ag12
ag12
ag12
ag12
ag12
ag12
ag12
ag12
ag12
ag12
ag12
ag12
ag12
ag12
ag12
ag12
ag12
ag12
ag12
ag12
ag12
ag12
ag12
ag12
ag12
ag12
ag12
ag12
ag12
ag12
ag12
ag12
ag12
ag12
ag12
ag12
ag12
ag12
ag12
ag12
ag12
ag12
ag12
aa(lp100
g12
ag12
ag12
ag12
ag12
ag12
ag12
ag12
ag12
ag12
ag12
ag12
ag12
ag12
ag12
ag12
ag12
ag12
ag12
ag12
ag12
ag12
ag12
ag12
ag12
ag12
ag12
ag12
ag12
ag12
ag12
ag12
ag12
ag12
ag12
ag12
ag12
ag12
ag12
ag12
ag12
ag12
ag12
ag12
ag12
ag12
ag12
ag12
ag12
ag12
ag12
ag12
ag12
ag12
ag12
ag12
ag12
ag12
ag12
ag12
ag12
ag12
ag12
ag12
ag12
ag12
ag12
ag12
ag12
ag12
ag12
ag12
ag12
ag12
ag12
ag12
ag12
ag12
ag12
aa(lp101
g12
ag12
ag12
ag18
ag19
ag16
ag17
ag18
ag19
ag12
ag12
ag12
ag12
ag12
ag12
ag12
ag12
ag12
ag12
ag12
ag12
ag12
ag12
ag12
ag12
ag12
ag12
ag12
ag12
ag12
ag12
ag12
ag12
ag12
ag12
ag12
ag12
ag12
ag12
ag12
ag12
ag12
ag12
ag12
ag12
ag12
ag12
ag12
ag12
ag12
ag12
ag12
ag12
ag12
ag12
ag12
ag12
ag12
ag12
ag12
ag12
ag12
ag12
ag12
ag12
ag12
ag12
ag12
ag12
ag12
ag12
ag12
ag12
ag12
ag12
ag12
ag12
ag12
ag12
aa(lp102
g12
ag12
ag12
ag12
ag12
ag12
ag12
ag12
ag12
ag12
ag12
ag12
ag12
ag12
ag12
ag12
ag12
ag12
ag12
ag12
ag12
ag12
ag12
ag12
ag12
ag12
ag12
ag12
ag12
ag12
ag12
ag12
ag12
ag12
ag12
ag12
ag12
ag12
ag12
ag12
ag12
ag12
ag12
ag12
ag12
ag12
ag12
ag12
ag12
ag12
ag12
ag12
ag12
ag12
ag12
ag12
ag12
ag12
ag12
ag12
ag12
ag12
ag12
ag12
ag12
ag12
ag12
ag12
ag12
ag12
ag12
ag12
ag12
ag12
ag12
ag12
ag12
ag12
ag12
aa(lp103
g12
ag12
ag12
ag12
ag12
ag12
ag12
ag12
ag12
ag12
ag12
ag12
ag12
ag12
ag12
ag12
ag12
ag12
ag12
ag12
ag12
ag12
ag12
ag12
ag12
ag12
ag12
ag12
ag12
ag12
ag12
ag12
ag12
ag12
ag12
ag12
ag12
ag12
ag12
ag12
ag12
ag12
ag12
ag12
ag12
ag12
ag12
ag12
ag12
ag12
ag12
ag12
ag12
ag12
ag12
ag12
ag12
ag12
ag12
ag12
ag12
ag12
ag12
ag12
ag12
ag12
ag12
ag12
ag12
ag12
ag12
ag12
ag12
ag12
ag12
ag12
ag12
ag12
ag12
aa(lp104
g12
ag12
ag12
ag12
ag12
ag12
ag12
ag12
ag12
ag12
ag23
ag24
ag23
ag12
ag12
ag12
ag12
ag12
ag12
ag12
ag12
ag12
ag12
ag12
ag12
ag12
ag12
ag12
ag12
ag12
ag12
ag12
ag12
ag12
ag12
ag12
ag12
ag12
ag12
ag12
ag12
ag12
ag12
ag12
ag12
ag12
ag12
ag12
ag12
ag12
ag12
ag12
ag12
ag12
ag12
ag12
ag12
ag12
ag12
ag12
ag12
ag12
ag12
ag12
ag12
ag12
ag12
ag12
ag12
ag12
ag12
ag12
ag12
ag12
ag12
ag12
ag12
ag12
ag12
aa(lp105
g12
ag12
ag12
ag12
ag12
ag12
ag12
ag12
ag12
ag12
ag12
ag12
ag12
ag12
ag12
ag12
ag12
ag12
ag12
ag12
ag12
ag12
ag12
ag12
ag12
ag12
ag12
ag12
ag12
ag12
ag12
ag12
ag12
ag12
ag12
ag12
ag12
ag12
ag12
ag12
ag12
ag12
ag12
ag12
ag12
ag12
ag12
ag12
ag12
ag12
ag12
ag12
ag12
ag12
ag12
ag12
ag12
ag12
ag12
ag12
ag12
ag12
ag12
ag12
ag12
ag12
ag12
ag12
ag12
ag12
ag12
ag12
ag12
ag12
ag12
ag12
ag12
ag12
ag12
aa(lp106
g12
ag12
ag12
ag12
ag12
ag12
ag12
ag12
ag12
ag12
ag12
ag12
ag12
ag12
ag12
ag12
ag12
ag12
ag12
ag12
ag12
ag12
ag12
ag12
ag12
ag12
ag12
ag12
ag12
ag12
ag12
ag12
ag12
ag12
ag12
ag12
ag12
ag12
ag12
ag12
ag12
ag12
ag12
ag12
ag12
ag12
ag12
ag12
ag12
ag12
ag12
ag12
ag12
ag12
ag12
ag12
ag12
ag12
ag12
ag12
ag12
ag12
ag12
ag12
ag12
ag12
ag12
ag12
ag12
ag12
ag12
ag12
ag12
ag12
ag12
ag12
ag12
ag12
ag12
aa(lp107
g12
ag12
ag12
ag12
ag12
ag12
ag12
ag12
ag12
ag12
ag12
ag12
ag12
ag12
ag12
ag12
ag12
ag12
ag12
ag12
ag12
ag12
ag12
ag12
ag12
ag12
ag12
ag12
ag12
ag12
ag12
ag12
ag12
ag12
ag12
ag12
ag12
ag12
ag12
ag12
ag12
ag12
ag12
ag12
ag12
ag12
ag12
ag12
ag12
ag12
ag12
ag12
ag12
ag12
ag12
ag12
ag12
ag12
ag12
ag12
ag12
ag12
ag12
ag12
ag12
ag12
ag12
ag12
ag12
ag12
ag12
ag12
ag12
ag12
ag12
ag12
ag12
ag12
ag12
aa(lp108
g12
ag12
ag12
ag12
ag12
ag12
ag12
ag12
ag12
ag12
ag12
ag12
ag12
ag12
ag12
ag12
ag12
ag12
ag12
ag12
ag12
ag12
ag12
ag12
ag12
ag12
ag12
ag12
ag12
ag12
ag12
ag12
ag12
ag12
ag12
ag12
ag12
ag12
ag12
ag12
ag12
ag12
ag12
ag12
ag12
ag12
ag12
ag12
ag12
ag12
ag12
ag12
ag12
ag12
ag12
ag12
ag12
ag12
ag12
ag12
ag12
ag12
ag12
ag12
ag12
ag12
ag12
ag12
ag12
ag12
ag12
ag12
ag12
ag12
ag12
ag12
ag12
ag12
ag12
aa(lp109
g12
ag12
ag12
ag12
ag12
ag12
ag12
ag12
ag12
ag12
ag12
ag12
ag12
ag12
ag12
ag12
ag12
ag12
ag12
ag12
ag12
ag12
ag12
ag12
ag12
ag12
ag12
ag12
ag12
ag12
ag12
ag12
ag12
ag12
ag12
ag12
ag12
ag12
ag12
ag12
ag12
ag12
ag12
ag12
ag12
ag12
ag12
ag12
ag12
ag12
ag12
ag12
ag12
ag12
ag12
ag12
ag12
ag12
ag12
ag12
ag12
ag12
ag12
ag12
ag12
ag12
ag12
ag12
ag12
ag12
ag12
ag12
ag12
ag12
ag12
ag12
ag12
ag12
ag12
aa(lp110
g12
ag12
ag12
ag12
ag12
ag12
ag12
ag12
ag12
ag12
ag12
ag12
ag12
ag12
ag12
ag12
ag12
ag12
ag12
ag12
ag12
ag12
ag12
ag12
ag12
ag12
ag12
ag12
ag12
ag12
ag12
ag12
ag12
ag12
ag12
ag12
ag12
ag12
ag12
ag12
ag12
ag12
ag12
ag12
ag12
ag12
ag12
ag12
ag12
ag12
ag12
ag12
ag12
ag12
ag12
ag12
ag12
ag12
ag12
ag12
ag12
ag12
ag12
ag12
ag12
ag12
ag12
ag12
ag12
ag12
ag12
ag12
ag12
ag12
ag12
ag12
ag12
ag12
ag12
aa(lp111
g12
ag12
ag12
ag12
ag12
ag12
ag12
ag12
ag12
ag12
ag12
ag12
ag12
ag12
ag12
ag12
ag12
ag12
ag12
ag12
ag12
ag12
ag12
ag12
ag12
ag12
ag12
ag12
ag12
ag12
ag12
ag12
ag12
ag12
ag12
ag12
ag12
ag12
ag12
ag12
ag12
ag12
ag12
ag12
ag12
ag12
ag12
ag12
ag12
ag12
ag12
ag12
ag12
ag12
ag12
ag12
ag12
ag12
ag12
ag12
ag12
ag12
ag12
ag12
ag12
ag12
ag12
ag12
ag12
ag12
ag12
ag12
ag12
ag12
ag12
ag12
ag12
ag12
ag12
aa(lp112
g12
ag12
ag12
ag12
ag12
ag12
ag12
ag12
ag12
ag12
ag12
ag12
ag12
ag12
ag12
ag12
ag12
ag12
ag12
ag12
ag12
ag12
ag12
ag12
ag12
ag12
ag12
ag12
ag12
ag12
ag12
ag12
ag12
ag12
ag12
ag12
ag12
ag12
ag12
ag12
ag12
ag12
ag12
ag12
ag12
ag12
ag12
ag12
ag12
ag12
ag12
ag12
ag12
ag12
ag12
ag12
ag12
ag12
ag12
ag12
ag12
ag12
ag12
ag12
ag12
ag12
ag12
ag12
ag12
ag12
ag12
ag12
ag12
ag12
ag12
ag12
ag12
ag12
ag12
aa(lp113
g12
ag12
ag12
ag12
ag12
ag12
ag12
ag12
ag12
ag12
ag12
ag12
ag12
ag12
ag12
ag12
ag12
ag12
ag12
ag12
ag12
ag12
ag12
ag12
ag12
ag12
ag12
ag12
ag12
ag12
ag12
ag12
ag12
ag12
ag12
ag12
ag12
ag12
ag12
ag12
ag12
ag12
ag12
ag12
ag12
ag12
ag12
ag12
ag12
ag12
ag12
ag12
ag12
ag12
ag12
ag12
ag12
ag12
ag12
ag12
ag12
ag12
ag12
ag12
ag12
ag12
ag12
ag12
ag12
ag12
ag12
ag12
ag12
ag12
ag12
ag12
ag12
ag12
ag12
aa(lp114
g12
ag12
ag12
ag12
ag12
ag12
ag12
ag12
ag12
ag12
ag12
ag12
ag12
ag12
ag12
ag12
ag12
ag12
ag12
ag12
ag12
ag12
ag12
ag12
ag12
ag12
ag12
ag12
ag12
ag12
ag12
ag12
ag12
ag12
ag12
ag12
ag12
ag12
ag12
ag12
ag12
ag12
ag12
ag12
ag12
ag12
ag12
ag12
ag12
ag12
ag12
ag12
ag12
ag12
ag12
ag12
ag12
ag12
ag12
ag12
ag12
ag12
ag12
ag12
ag12
ag12
ag12
ag12
ag12
ag12
ag12
ag12
ag12
ag12
ag12
ag12
ag12
ag12
ag12
aa(lp115
g12
ag12
ag12
ag12
ag12
ag12
ag12
ag12
ag12
ag12
ag12
ag12
ag12
ag12
ag12
ag12
ag12
ag12
ag12
ag12
ag12
ag12
ag12
ag12
ag12
ag12
ag12
ag12
ag12
ag12
ag12
ag12
ag12
ag12
ag12
ag12
ag12
ag12
ag12
ag12
ag12
ag12
ag12
ag12
ag12
ag12
ag12
ag12
ag12
ag12
ag12
ag12
ag12
ag12
ag12
ag12
ag12
ag12
ag12
ag12
ag12
ag12
ag12
ag12
ag12
ag12
ag12
ag12
ag12
ag12
ag12
ag12
ag12
ag12
ag12
ag12
ag12
ag12
ag12
aa(lp116
g12
ag12
ag12
ag12
ag12
ag12
ag12
ag12
ag12
ag12
ag12
ag12
ag12
ag12
ag12
ag12
ag12
ag12
ag12
ag12
ag12
ag12
ag12
ag12
ag12
ag12
ag12
ag12
ag12
ag12
ag12
ag12
ag12
ag12
ag12
ag12
ag12
ag12
ag12
ag12
ag12
ag12
ag12
ag12
ag12
ag12
ag12
ag12
ag12
ag12
ag12
ag12
ag12
ag12
ag12
ag12
ag12
ag12
ag12
ag12
ag12
ag12
ag12
ag12
ag12
ag12
ag12
ag12
ag12
ag12
ag12
ag12
ag12
ag12
ag12
ag12
ag12
ag12
ag12
aa(lp117
g12
ag12
ag12
ag12
ag12
ag12
ag12
ag12
ag12
ag12
ag12
ag12
ag12
ag12
ag12
ag12
ag12
ag12
ag12
ag12
ag12
ag12
ag12
ag12
ag12
ag12
ag12
ag12
ag12
ag12
ag12
ag12
ag12
ag12
ag12
ag12
ag12
ag12
ag12
ag12
ag12
ag12
ag12
ag12
ag12
ag12
ag12
ag12
ag12
ag12
ag12
ag12
ag12
ag12
ag12
ag12
ag12
ag12
ag12
ag12
ag12
ag12
ag12
ag12
ag12
ag12
ag12
ag12
ag12
ag12
ag12
ag12
ag12
ag12
ag12
ag12
ag12
ag12
ag12
aa(lp118
g12
ag12
ag12
ag12
ag12
ag12
ag12
ag12
ag12
ag12
ag12
ag12
ag12
ag12
ag12
ag12
ag12
ag12
ag12
ag12
ag12
ag12
ag12
ag12
ag12
ag12
ag12
ag12
ag12
ag12
ag12
ag12
ag12
ag12
ag12
ag12
ag12
ag12
ag12
ag12
ag12
ag12
ag12
ag12
ag12
ag12
ag12
ag12
ag12
ag12
ag12
ag12
ag12
ag12
ag12
ag12
ag12
ag12
ag12
ag12
ag12
ag12
ag12
ag12
ag12
ag12
ag12
ag12
ag12
ag12
ag12
ag12
ag12
ag12
ag12
ag12
ag12
ag12
ag12
aa(lp119
g12
ag12
ag12
ag12
ag12
ag12
ag12
ag12
ag12
ag12
ag12
ag12
ag12
ag12
ag12
ag12
ag12
ag12
ag12
ag12
ag12
ag12
ag12
ag12
ag12
ag12
ag12
ag12
ag12
ag12
ag12
ag12
ag12
ag12
ag12
ag12
ag12
ag12
ag12
ag12
ag12
ag12
ag12
ag12
ag12
ag12
ag12
ag12
ag12
ag12
ag12
ag12
ag12
ag12
ag12
ag12
ag12
ag12
ag12
ag12
ag12
ag12
ag12
ag12
ag12
ag12
ag12
ag12
ag12
ag12
ag12
ag12
ag12
ag12
ag12
ag12
ag12
ag12
ag12
aa(lp120
g12
ag12
ag12
ag12
ag12
ag12
ag12
ag12
ag12
ag12
ag12
ag12
ag12
ag12
ag12
ag12
ag12
ag12
ag12
ag12
ag12
ag12
ag12
ag12
ag12
ag12
ag12
ag12
ag12
ag12
ag12
ag12
ag12
ag12
ag12
ag12
ag12
ag12
ag12
ag12
ag12
ag12
ag12
ag12
ag12
ag12
ag12
ag12
ag12
ag12
ag12
ag12
ag12
ag12
ag12
ag12
ag12
ag12
ag12
ag12
ag12
ag12
ag12
ag12
ag12
ag12
ag12
ag12
ag12
ag12
ag12
ag12
ag12
ag12
ag12
ag12
ag12
ag12
ag12
aasg3
I79
sg4
I23
sbasS'frameCount'
p121
I4
sb.