(i__main__
Options
p0
(dp1
S'sizeX'
p2
I79
sS'saveFileFormat'
p3
I1
sS'framerate'
p4
F9.0
sS'sizeY'
p5
I23
sb.(i__main__
Movie
p0
(dp1
S'currentFrameNumber'
p2
I2
sS'frameCount'
p3
I2
sS'frames'
p4
(lp5
(i__main__
Frame
p6
(dp7
S'content'
p8
(lp9
(lp10
S' '
p11
ag11
ag11
ag11
ag11
ag11
ag11
ag11
ag11
ag11
ag11
ag11
ag11
ag11
ag11
ag11
ag11
ag11
ag11
ag11
ag11
ag11
ag11
ag11
ag11
ag11
ag11
ag11
ag11
ag11
ag11
ag11
ag11
ag11
ag11
ag11
ag11
ag11
ag11
ag11
ag11
ag11
ag11
ag11
ag11
ag11
ag11
ag11
ag11
ag11
ag11
ag11
ag11
ag11
ag11
ag11
ag11
ag11
ag11
ag11
ag11
ag11
ag11
ag11
ag11
ag11
ag11
ag11
ag11
ag11
ag11
ag11
ag11
ag11
ag11
ag11
ag11
ag11
ag11
aa(lp12
g11
ag11
ag11
ag11
ag11
ag11
ag11
ag11
ag11
ag11
ag11
ag11
ag11
ag11
ag11
ag11
ag11
ag11
ag11
ag11
ag11
ag11
ag11
ag11
ag11
ag11
ag11
aS' '
p13
aS'.'
p14
ag11
ag11
ag11
ag11
ag11
ag11
ag11
ag11
ag11
ag11
ag11
ag11
ag11
ag11
ag11
ag11
ag11
ag11
ag11
ag11
ag11
ag11
ag11
ag11
ag11
ag11
ag11
ag11
ag11
ag11
ag11
ag11
ag11
ag11
ag11
ag11
ag11
ag11
ag11
ag11
ag11
ag11
ag11
ag11
ag11
ag11
ag11
ag11
ag11
ag11
aa(lp15
g11
ag11
ag11
ag11
ag11
ag11
ag11
ag11
ag11
ag11
ag11
ag11
ag11
ag11
ag11
ag11
ag11
ag11
ag11
ag11
ag11
ag11
ag11
ag11
ag11
ag11
ag11
ag11
aS';'
p16
aS'\r'
p17
ag11
ag11
ag11
ag11
ag11
ag11
ag11
ag11
ag11
ag11
ag11
ag11
ag11
ag11
ag11
ag11
ag11
ag11
ag11
ag11
ag11
ag11
ag11
ag11
ag11
ag11
ag11
ag11
ag11
ag11
ag11
ag11
ag11
ag11
ag11
ag11
ag11
ag11
ag11
ag11
ag11
ag11
ag11
ag11
ag11
ag11
ag11
ag11
ag11
aa(lp18
g11
ag11
ag11
ag11
ag11
ag11
ag11
ag11
ag11
ag11
ag11
aS'.'
p19
ag11
ag11
ag11
ag11
ag11
ag11
ag11
ag11
ag11
ag11
ag11
ag19
ag11
ag11
ag11
ag16
ag16
ag16
ag11
ag11
ag11
ag11
ag11
ag11
ag17
ag11
ag11
ag11
ag11
ag11
ag11
ag11
ag11
ag11
ag11
ag11
ag11
ag11
ag11
ag11
ag11
ag11
ag11
ag11
ag11
ag11
ag11
ag11
ag11
ag11
ag11
ag11
ag11
ag11
ag11
ag11
ag11
ag11
ag11
ag11
ag11
ag11
ag11
ag11
ag11
ag11
ag11
aa(lp20
g11
ag11
ag11
ag11
ag11
ag11
ag11
ag11
ag11
ag11
ag11
aS'`'
p21
aS'-'
p22
ag19
ag19
ag19
ag22
ag21
aS"'"
p23
ag11
ag19
ag16
aS'F'
p24
ag11
ag19
ag19
ag16
ag16
ag16
ag11
ag11
ag11
ag11
ag17
ag11
ag11
ag11
ag11
ag11
ag11
ag11
ag11
ag11
ag11
ag11
ag11
ag11
ag11
ag11
ag11
ag11
ag11
ag11
ag11
ag11
ag11
ag11
ag11
ag11
ag11
ag11
ag11
ag11
ag11
ag11
ag11
ag11
ag11
ag11
ag11
ag11
ag11
ag11
ag11
ag11
ag11
ag11
ag11
ag11
aa(lp25
g11
ag11
ag11
ag11
ag11
ag11
ag11
ag11
ag11
ag11
ag11
ag11
ag11
ag21
ag19
ag22
ag16
ag16
ag11
aS'j'
p26
aS'!'
p27
aS'P'
p28
ag11
ag11
ag19
ag16
ag16
ag21
ag11
ag19
ag17
ag11
ag11
ag11
ag11
ag11
ag11
ag11
ag11
ag11
ag11
ag11
ag11
ag11
ag11
ag11
ag11
ag11
ag11
ag11
ag11
ag11
ag11
ag11
ag11
ag11
ag11
ag11
ag11
ag11
ag11
ag11
ag11
ag11
ag11
ag11
ag11
ag11
ag11
ag11
ag11
ag11
ag11
ag11
ag11
ag11
ag11
ag11
ag11
aa(lp29
g11
ag11
ag11
ag11
ag11
ag11
ag11
ag11
ag11
ag11
ag11
ag11
ag11
ag16
ag16
ag16
ag11
ag11
ag19
ag24
ag11
ag26
ag11
ag19
ag21
ag19
ag11
ag17
ag11
ag11
ag11
ag11
ag11
ag11
ag11
ag11
ag11
ag11
ag11
ag11
ag11
ag11
ag11
ag11
ag11
ag11
ag11
ag11
ag11
ag11
ag11
ag11
ag11
ag11
ag11
ag11
ag11
ag11
ag11
ag11
ag11
ag11
ag11
ag11
ag11
ag11
ag11
ag11
ag11
ag11
ag11
ag11
ag11
ag11
ag11
ag11
ag11
ag11
ag11
aa(lp30
g11
ag11
ag11
ag11
ag11
ag11
ag11
ag11
ag11
ag11
ag11
ag11
ag19
ag16
ag21
ag16
ag16
ag16
ag16
aS'L'
p31
ag11
ag16
ag19
ag11
ag11
ag16
ag14
ag13
ag11
ag11
ag11
ag11
ag11
ag11
ag11
ag11
ag11
ag11
ag11
ag11
ag11
ag11
ag11
ag11
ag11
ag11
ag11
ag11
ag11
ag11
ag11
ag11
ag11
ag11
ag11
ag11
ag11
ag11
ag11
ag11
ag11
ag11
ag11
ag11
ag11
ag11
ag11
ag11
ag11
ag11
ag11
ag11
ag11
ag11
ag11
ag11
ag11
ag11
ag11
aa(lp32
g11
ag11
ag11
ag11
ag11
ag11
ag11
ag11
ag11
ag11
ag11
ag16
ag16
ag16
ag16
ag23
ag11
ag19
ag21
ag23
ag16
ag16
ag21
aS':'
p33
ag19
ag13
aS'`'
p34
aS';'
p35
ag17
ag11
ag11
ag11
ag11
ag11
ag11
ag11
ag11
ag11
ag11
ag11
ag11
ag11
ag11
ag11
ag11
ag11
ag11
ag11
ag11
ag11
ag11
ag11
ag11
ag11
ag11
ag11
ag11
ag11
ag11
ag11
ag11
ag11
ag11
ag11
ag11
ag11
ag11
ag11
ag11
ag11
ag11
ag11
ag11
ag11
ag11
ag11
ag11
ag11
ag11
aa(lp36
g11
ag11
ag11
ag11
ag11
ag11
ag11
ag11
ag19
ag11
ag19
ag16
ag16
ag16
ag16
ag11
ag16
ag16
ag16
ag16
ag16
ag23
ag11
ag11
ag19
ag21
ag21
ag19
ag21
ag19
ag17
ag11
ag11
ag11
ag11
ag11
ag11
ag11
ag11
ag11
ag11
ag11
ag11
ag11
ag11
ag11
ag11
ag11
ag11
ag11
ag11
ag11
ag11
ag11
ag11
ag11
ag11
ag11
ag11
ag11
ag11
ag11
ag11
ag11
ag11
ag11
ag11
ag11
ag11
ag11
ag11
ag11
ag11
ag11
ag11
ag11
ag11
ag11
ag11
aa(lp37
g11
ag11
ag11
ag11
ag11
ag11
ag11
ag11
ag11
ag21
ag23
ag16
ag16
ag16
ag11
ag16
ag16
ag16
ag16
ag16
ag11
ag11
ag11
ag11
ag11
ag21
ag21
ag11
ag11
ag11
ag21
ag19
ag11
ag11
ag11
ag11
ag11
ag17
ag11
ag11
ag11
ag11
ag11
ag11
ag11
ag11
ag11
ag11
ag11
ag11
ag11
ag11
ag11
ag11
ag11
ag11
ag11
ag11
ag11
ag11
ag11
ag11
ag11
ag11
ag11
ag11
ag11
ag11
ag11
ag11
ag11
ag11
ag11
ag11
ag11
ag11
ag11
ag11
ag11
aa(lp38
g11
ag11
ag11
ag11
ag11
ag11
ag11
ag11
ag11
ag11
ag16
ag16
ag16
ag11
ag16
ag16
ag16
ag23
ag16
ag16
ag11
ag11
ag11
ag11
ag11
ag11
ag11
ag11
ag11
ag11
ag11
ag11
ag21
ag22
ag19
aS'_'
p39
ag17
ag11
ag11
ag11
ag11
ag11
ag11
ag11
ag11
ag11
ag11
ag11
ag11
ag11
ag11
ag11
ag11
ag11
ag11
ag11
ag11
ag11
ag11
ag11
ag11
ag11
ag11
ag11
ag11
ag11
ag11
ag11
ag11
ag11
ag11
ag11
ag11
ag11
ag11
ag11
ag11
ag11
ag11
aa(lp40
g11
ag11
ag11
ag11
ag11
ag11
ag11
ag11
ag11
ag16
ag16
ag16
ag11
ag11
ag16
ag11
ag16
ag11
ag16
ag31
ag11
ag11
ag11
ag11
ag11
ag11
ag39
ag39
ag11
ag11
ag11
ag11
ag11
ag11
ag11
ag16
ag31
ag17
ag11
ag11
ag11
ag11
ag11
ag11
ag11
ag11
ag11
ag11
ag11
ag11
ag11
ag11
ag11
ag11
ag11
ag11
ag11
ag11
ag11
ag11
ag11
ag11
ag11
ag11
ag11
ag11
ag11
ag11
ag11
ag11
ag11
ag11
ag11
ag11
ag11
ag11
ag11
ag11
ag11
aa(lp41
g11
ag11
ag11
ag11
ag11
ag11
ag11
ag11
ag11
ag16
ag16
ag16
ag16
ag11
ag16
ag11
ag11
ag16
ag11
ag21
aS'"'
p42
aS'*'
p43
ag43
aS'g'
p44
ag43
ag42
ag42
ag21
ag42
ag33
ag33
ag16
ag16
ag16
ag16
ag23
ag21
ag17
ag11
ag11
ag11
ag11
ag11
ag11
ag11
ag11
ag11
ag11
ag11
ag11
ag11
ag11
ag11
ag11
ag11
ag11
ag11
ag11
ag11
ag11
ag11
ag11
ag11
ag11
ag11
ag11
ag11
ag11
ag11
ag11
ag11
ag11
ag11
ag11
ag11
ag11
ag11
ag11
ag11
aa(lp45
g11
ag11
ag11
ag11
ag11
ag11
ag11
ag11
ag11
ag21
ag16
ag16
ag16
ag19
ag16
ag11
ag11
ag11
ag21
ag19
ag11
ag11
ag11
ag16
ag19
ag16
ag16
ag19
ag11
ag11
ag11
ag11
ag11
ag11
ag11
ag11
ag11
ag11
ag11
ag11
ag11
ag11
ag11
ag11
ag11
ag11
ag11
ag11
ag11
ag11
ag11
ag11
ag11
ag11
ag11
ag11
ag11
ag39
ag19
aS','
p46
ag19
ag19
ag39
ag13
ag11
ag11
ag11
ag11
ag11
ag11
ag11
ag11
ag11
ag11
ag11
ag11
ag11
ag11
ag11
aa(lp47
g11
ag11
ag11
ag11
ag11
ag11
ag11
ag11
ag11
ag11
ag16
ag16
ag16
ag16
ag16
ag11
ag11
ag11
ag11
ag16
ag11
ag11
ag11
ag11
ag16
ag16
ag16
ag16
ag16
ag19
ag11
ag11
ag11
ag11
ag11
ag11
ag11
ag11
ag11
ag11
ag11
ag11
ag11
ag11
ag11
ag11
ag11
ag11
ag11
ag11
ag11
ag11
ag11
ag11
ag11
ag19
ag16
ag16
ag16
ag16
ag16
ag16
ag16
ag16
ag16
ag19
ag13
ag11
ag11
ag11
ag11
ag11
ag11
ag11
ag11
ag11
ag11
ag11
ag11
aa(lp48
g11
ag11
ag11
ag11
ag11
ag11
ag22
ag19
ag19
ag16
ag16
ag16
ag16
ag16
ag16
ag16
ag11
ag11
ag21
ag11
ag11
ag11
ag11
ag19
ag21
ag16
ag16
ag16
ag19
ag11
ag21
ag19
ag11
ag11
ag11
ag11
ag11
ag11
ag11
ag11
ag11
ag11
ag11
ag11
ag11
ag11
ag11
ag11
ag11
ag11
ag11
ag11
ag11
ag11
ag16
ag16
ag16
ag16
ag16
ag23
ag19
ag46
ag46
ag19
ag21
ag16
ag16
ag46
ag19
ag14
ag17
ag11
ag11
ag11
ag11
ag11
ag11
ag11
ag11
aa(lp49
g11
ag11
ag11
ag11
ag11
ag11
ag11
ag11
ag11
ag11
ag21
ag21
ag16
ag16
ag16
ag16
ag11
ag11
ag11
ag11
ag11
ag19
ag21
ag11
ag11
ag16
ag16
ag21
ag11
ag21
ag21
ag19
ag19
ag19
ag39
ag39
ag39
ag11
ag11
ag39
ag19
ag19
ag22
ag21
ag21
ag21
ag21
ag21
ag22
ag19
ag16
ag19
ag19
ag16
ag16
ag16
ag16
ag16
ag11
ag23
ag11
ag11
ag11
ag11
ag21
ag19
ag16
ag23
ag21
ag17
ag11
ag11
ag11
ag11
ag11
ag11
ag11
ag11
ag11
aa(lp50
g11
ag11
ag11
ag11
ag11
ag11
ag11
ag11
ag11
ag16
ag16
ag16
ag16
ag16
ag16
ag11
ag16
ag11
ag11
ag11
ag11
ag11
ag11
ag11
ag11
ag16
ag16
ag11
ag11
ag11
ag11
ag11
ag11
ag11
ag11
ag11
ag11
ag21
ag21
ag21
ag22
ag22
ag11
ag11
ag11
ag11
ag11
ag22
ag23
ag21
ag11
ag11
ag11
ag11
ag21
ag19
ag22
ag19
ag11
ag19
ag11
ag21
ag21
ag19
ag11
ag11
ag11
ag16
ag17
ag11
ag11
ag11
ag11
ag11
ag11
ag11
ag11
ag11
ag11
aa(lp51
g11
ag11
ag11
ag11
ag11
ag11
ag11
ag11
ag16
ag16
ag16
ag16
ag11
ag16
ag11
ag11
ag11
ag16
ag11
ag11
ag11
ag11
ag11
ag11
ag16
ag11
ag11
ag21
ag11
ag11
ag11
ag11
ag11
ag11
ag11
ag11
ag11
ag11
ag11
ag11
ag11
ag11
ag11
ag11
ag11
ag11
ag11
ag11
ag11
ag11
ag11
ag11
ag11
ag11
ag11
ag11
ag16
ag11
ag16
ag11
ag16
ag16
ag19
ag11
ag16
ag11
ag16
ag13
ag11
ag11
ag11
ag11
ag11
ag11
ag11
ag11
ag11
ag11
ag11
aa(lp52
g11
ag11
ag11
ag11
ag11
ag11
ag11
ag16
ag16
ag16
ag16
ag16
ag16
ag16
ag11
ag11
ag19
ag11
ag21
ag11
ag11
ag11
ag11
ag11
ag11
ag11
ag11
ag11
ag11
ag11
ag11
ag11
ag11
ag11
ag19
ag11
ag11
ag11
ag11
ag11
ag11
ag11
ag11
ag11
ag11
ag11
ag11
ag11
ag11
ag11
ag11
ag11
ag11
ag11
ag11
ag11
ag11
ag16
ag11
ag16
ag11
ag16
ag16
ag11
ag21
ag19
ag21
ag16
ag11
ag11
ag11
ag14
ag14
ag14
ag13
ag17
ag11
ag11
ag11
aa(lp53
g11
ag11
ag11
ag11
ag11
ag11
ag11
ag16
ag16
ag16
ag16
ag16
ag16
ag16
ag11
ag11
ag11
ag21
ag19
ag11
ag11
ag11
ag11
ag11
ag11
ag19
ag22
ag11
ag11
ag11
ag11
ag11
ag11
ag11
ag16
ag11
ag11
ag11
ag11
ag11
ag11
ag11
ag11
ag11
ag11
ag19
ag11
ag11
ag11
ag11
ag11
ag11
ag11
ag11
ag11
ag11
ag11
ag16
ag11
ag16
ag16
ag16
ag11
ag16
ag19
ag11
ag11
ag21
ag21
ag21
ag22
ag22
ag21
ag16
ag17
ag11
ag11
ag11
ag11
aa(lp54
g11
ag11
ag11
ag11
ag11
ag11
ag11
ag11
ag16
ag16
ag16
ag16
ag16
ag11
ag16
ag11
ag11
ag11
ag21
ag19
ag11
ag11
ag11
ag11
ag16
ag11
ag11
ag11
ag11
ag11
ag11
ag11
ag11
ag16
ag11
ag11
ag11
ag11
ag11
ag11
ag11
ag11
ag11
ag11
ag11
ag11
ag16
ag11
ag11
ag11
ag11
ag11
ag11
ag11
ag11
ag11
ag11
ag16
ag11
ag16
ag16
ag16
ag11
ag11
ag11
ag21
ag21
ag22
ag19
ag19
ag19
ag22
ag23
ag17
ag11
ag11
ag11
ag11
ag11
aasS'sizeX'
p55
I79
sS'sizeY'
p56
I23
sba(i__main__
Frame
p57
(dp58
g8
(lp59
(lp60
g11
ag11
ag11
ag11
ag11
ag11
ag11
ag11
ag11
ag11
ag11
ag11
ag11
ag11
ag11
ag11
ag11
ag11
ag11
ag11
ag11
ag11
ag11
ag11
ag11
ag11
ag11
ag11
ag11
ag11
ag11
ag11
ag11
ag11
ag11
ag11
ag11
ag11
ag11
ag11
ag11
ag11
ag11
ag11
ag11
ag11
ag11
ag11
ag11
ag11
ag11
ag11
ag11
ag11
ag11
ag11
ag11
ag11
ag11
ag11
ag11
ag11
ag11
ag11
ag11
ag11
ag11
ag11
ag11
ag11
ag11
ag11
ag11
ag11
ag11
ag11
ag11
ag11
ag11
aa(lp61
g11
ag11
ag11
ag11
ag11
ag11
ag11
ag11
ag11
ag11
ag11
ag11
ag11
ag11
ag11
ag11
ag11
ag11
ag11
ag11
ag11
ag11
ag11
ag11
ag11
ag11
ag11
ag19
ag13
ag11
ag11
ag11
ag11
ag11
ag11
ag11
ag11
ag11
ag11
ag11
ag11
ag11
ag11
ag11
ag11
ag11
ag11
ag11
ag11
ag11
ag11
ag11
ag11
ag11
ag11
ag11
ag11
ag11
ag11
ag11
ag11
ag11
ag11
ag11
ag11
ag11
ag11
ag11
ag11
ag11
ag11
ag11
ag11
ag11
ag11
ag11
ag11
ag11
ag11
aa(lp62
g11
ag11
ag11
ag11
ag11
ag11
ag11
ag11
ag11
ag11
ag11
ag11
ag11
ag11
ag11
ag11
ag11
ag11
ag11
ag11
ag11
ag11
ag11
ag11
ag11
ag11
ag11
ag11
ag16
ag17
ag11
ag11
ag11
ag11
ag11
ag11
ag11
ag11
ag11
ag11
ag11
ag11
ag11
ag11
ag11
ag11
ag11
ag11
ag11
ag11
ag11
ag11
ag11
ag11
ag11
ag11
ag11
ag11
ag11
ag11
ag11
ag11
ag11
ag11
ag11
ag11
ag11
ag11
ag11
ag11
ag11
ag11
ag11
ag11
ag11
ag11
ag11
ag11
ag11
aa(lp63
g11
ag11
ag11
ag11
ag11
ag11
ag11
ag11
ag11
ag11
ag11
ag11
ag11
ag11
ag11
ag11
ag11
ag11
ag11
ag11
ag11
ag11
ag11
ag19
ag11
ag11
ag11
ag16
ag16
ag16
ag11
ag11
ag11
ag11
ag11
ag11
ag17
ag11
ag11
ag11
ag11
ag11
ag11
ag11
ag11
ag11
ag11
ag11
ag11
ag11
ag11
ag11
ag11
ag11
ag11
ag11
ag11
ag11
ag11
ag11
ag11
ag11
ag11
ag11
ag11
ag11
ag11
ag11
ag11
ag11
ag11
ag11
ag11
ag11
ag11
ag11
ag11
ag11
ag11
aa(lp64
g11
ag11
ag11
ag11
ag11
ag11
ag11
ag11
ag11
ag11
ag21
ag22
ag19
ag19
ag19
ag19
ag22
ag21
ag23
ag11
ag19
ag16
ag24
ag11
ag19
ag19
ag16
ag16
ag16
ag11
ag11
ag11
ag11
ag13
ag11
ag11
ag11
ag11
ag11
ag11
ag11
ag11
ag11
ag11
ag11
ag11
ag11
ag11
ag11
ag11
ag11
ag11
ag11
ag11
ag11
ag11
ag11
ag11
ag11
ag11
ag11
ag11
ag11
ag11
ag11
ag11
ag11
ag11
ag11
ag11
ag11
ag11
ag11
ag11
ag11
ag11
ag11
ag11
ag11
aa(lp65
g11
ag11
ag11
ag11
ag11
ag11
ag11
ag11
ag11
ag11
ag11
ag11
ag11
ag21
ag19
ag22
ag16
ag16
ag11
ag26
ag27
ag28
ag11
ag11
ag19
ag16
ag16
ag21
ag11
ag19
ag17
ag11
ag11
ag11
ag11
ag11
ag11
ag11
ag11
ag11
ag11
ag11
ag11
ag11
ag11
ag11
ag11
ag11
ag11
ag11
ag11
ag11
ag11
ag11
ag11
ag11
ag11
ag11
ag11
ag11
ag11
ag11
ag11
ag11
ag11
ag11
ag11
ag11
ag11
ag11
ag11
ag11
ag11
ag11
ag11
ag11
ag11
ag11
ag11
aa(lp66
g11
ag11
ag11
ag11
ag11
ag11
ag11
ag11
ag11
ag11
ag11
ag11
ag11
ag16
ag16
ag16
ag11
ag11
ag19
ag24
ag11
ag26
ag11
ag19
ag21
ag19
ag11
ag17
ag11
ag11
ag11
ag11
ag11
ag11
ag11
ag11
ag11
ag11
ag11
ag11
ag11
ag11
ag11
ag11
ag11
ag11
ag11
ag11
ag11
ag11
ag11
ag11
ag11
ag11
ag11
ag11
ag11
ag11
ag11
ag11
ag11
ag11
ag11
ag11
ag11
ag11
ag11
ag11
ag11
ag11
ag11
ag11
ag11
ag11
ag11
ag11
ag11
ag11
ag11
aa(lp67
g11
ag11
ag11
ag11
ag11
ag11
ag11
ag11
ag11
ag11
ag11
ag11
ag19
ag16
ag21
ag16
ag16
ag16
ag16
ag31
ag11
ag16
ag19
ag11
ag11
ag16
ag19
ag17
ag11
ag11
ag11
ag11
ag11
ag11
ag11
ag11
ag11
ag11
ag11
ag11
ag11
ag11
ag11
ag11
ag11
ag11
ag11
ag11
ag11
ag11
ag11
ag11
ag11
ag11
ag11
ag11
ag11
ag11
ag11
ag11
ag11
ag11
ag11
ag11
ag11
ag11
ag11
ag11
ag11
ag11
ag11
ag11
ag11
ag11
ag11
ag11
ag11
ag11
ag11
aa(lp68
g11
ag11
ag11
ag11
ag11
ag11
ag11
ag11
ag11
ag11
ag11
ag16
ag16
ag16
ag16
ag23
ag11
ag19
ag21
ag23
ag16
ag16
ag21
ag33
ag19
ag13
ag34
ag16
ag17
ag11
ag11
ag11
ag11
ag11
ag11
ag11
ag11
ag11
ag11
ag11
ag13
ag11
ag11
ag11
ag11
ag11
ag11
ag11
ag11
ag11
ag11
ag11
ag11
ag11
ag11
ag11
ag11
ag11
ag11
ag11
ag11
ag11
ag11
ag11
ag11
ag11
ag11
ag11
ag11
ag11
ag11
ag11
ag11
ag11
ag11
ag11
ag11
ag11
ag11
aa(lp69
g11
ag11
ag11
ag11
ag11
ag11
ag11
ag11
ag11
ag11
ag19
ag16
ag16
ag16
ag16
ag11
ag16
ag16
ag16
ag16
ag16
ag23
ag11
ag11
ag19
ag21
ag21
ag19
ag21
ag19
ag13
ag11
ag11
ag11
ag11
ag11
ag11
ag11
ag11
ag11
ag11
ag11
ag11
ag11
ag11
ag11
ag11
ag11
ag11
ag11
ag11
ag11
ag11
ag11
ag11
ag11
ag11
ag11
ag11
ag11
ag11
ag11
ag11
ag11
ag11
ag11
ag11
ag11
ag11
ag11
ag11
ag11
ag11
ag11
ag11
ag11
ag11
ag11
ag11
aa(lp70
g11
ag11
ag11
ag11
ag11
ag11
ag11
ag11
ag21
ag22
ag23
ag16
ag16
ag16
ag11
ag16
ag16
ag16
ag16
ag16
ag11
ag11
ag11
ag11
ag11
ag21
ag21
ag11
ag11
ag11
ag21
ag19
ag11
ag11
ag11
ag11
ag11
ag17
ag11
ag11
ag11
ag11
ag11
ag11
ag11
ag11
ag11
ag11
ag11
ag11
ag11
ag11
ag11
ag11
ag11
ag11
ag11
ag11
ag11
ag11
ag11
ag11
ag11
ag11
ag11
ag11
ag11
ag11
ag11
ag11
ag11
ag11
ag11
ag11
ag11
ag11
ag11
ag11
ag11
aa(lp71
g11
ag11
ag11
ag11
ag11
ag11
ag11
ag11
ag11
ag11
ag16
ag16
ag16
ag11
ag16
ag16
ag16
ag23
ag16
ag16
ag11
ag11
ag11
ag11
ag11
ag11
ag11
ag11
ag11
ag11
ag11
ag11
ag21
ag22
ag19
ag39
ag17
ag11
ag11
ag11
ag11
ag11
ag11
ag11
ag11
ag11
ag11
ag11
ag11
ag11
ag11
ag11
ag11
ag11
ag11
ag11
ag11
ag11
ag11
ag11
ag11
ag11
ag11
ag11
ag11
ag11
ag11
ag11
ag11
ag11
ag11
ag11
ag11
ag11
ag11
ag11
ag11
ag11
ag11
aa(lp72
g11
ag11
ag11
ag11
ag11
ag11
ag11
ag11
ag11
ag16
ag16
ag16
ag11
ag11
ag16
ag11
ag16
ag11
ag16
ag31
ag11
ag11
ag11
ag11
ag11
ag11
ag39
ag39
ag11
ag11
ag11
ag11
ag11
ag11
ag11
ag16
ag31
ag17
ag11
ag11
ag11
ag11
ag11
ag11
ag11
ag11
ag11
ag11
ag11
ag11
ag11
ag11
ag11
ag11
ag11
ag11
ag11
ag11
ag11
ag11
ag11
ag11
ag11
ag11
ag11
ag11
ag11
ag11
ag11
ag11
ag11
ag11
ag11
ag11
ag11
ag11
ag11
ag11
ag11
aa(lp73
g11
ag11
ag11
ag11
ag11
ag11
ag11
ag11
ag11
ag16
ag16
ag16
ag16
ag11
ag16
ag11
ag11
ag16
ag11
ag21
ag42
ag43
ag43
ag44
ag43
ag42
ag42
ag21
ag42
ag33
ag33
ag16
ag16
ag16
ag16
ag23
ag21
ag17
ag11
ag11
ag11
ag11
ag11
ag11
ag11
ag11
ag11
ag11
ag11
ag11
ag11
ag11
ag11
ag11
ag11
ag11
ag11
ag11
ag11
ag11
ag11
ag11
ag11
ag11
ag11
ag11
ag11
ag11
ag11
ag11
ag11
ag11
ag11
ag11
ag11
ag11
ag11
ag11
ag11
aa(lp74
g11
ag11
ag11
ag11
ag11
ag11
ag11
ag11
ag11
ag21
ag16
ag16
ag16
ag19
ag16
ag11
ag11
ag11
ag21
ag19
ag11
ag11
ag11
ag16
ag19
ag16
ag16
ag19
ag11
ag11
ag11
ag11
ag11
ag11
ag11
ag11
ag11
ag11
ag11
ag11
ag11
ag11
ag11
ag11
ag11
ag11
ag11
ag11
ag11
ag11
ag11
ag11
ag11
ag11
ag11
ag11
ag11
ag39
ag19
ag46
ag19
ag19
ag39
ag17
ag11
ag11
ag11
ag11
ag11
ag11
ag11
ag11
ag11
ag11
ag11
ag11
ag11
ag11
ag11
aa(lp75
g11
ag11
ag11
ag11
ag11
ag11
ag11
ag11
ag11
ag11
ag16
ag16
ag16
ag16
ag16
ag11
ag11
ag11
ag11
ag16
ag11
ag11
ag11
ag11
ag16
ag16
ag16
ag16
ag16
ag19
ag11
ag11
ag11
ag11
ag11
ag11
ag11
ag11
ag11
ag11
ag11
ag11
ag11
ag11
ag11
ag11
ag11
ag11
ag11
ag11
ag11
ag11
ag11
ag11
ag11
ag19
ag16
ag16
ag16
ag16
ag16
ag16
ag16
ag16
ag16
ag19
ag17
ag11
ag11
ag11
ag11
ag11
ag11
ag11
ag11
ag11
ag11
ag11
ag11
aa(lp76
g11
ag11
ag11
ag11
ag11
ag11
ag39
ag19
ag19
ag16
ag16
ag16
ag16
ag16
ag16
ag16
ag11
ag11
ag21
ag11
ag11
ag11
ag11
ag19
ag21
ag16
ag16
ag16
ag19
ag11
ag21
ag19
ag11
ag11
ag11
ag11
ag11
ag11
ag11
ag11
ag11
ag11
ag11
ag11
ag11
ag11
ag11
ag11
ag11
ag11
ag11
ag11
ag11
ag11
ag16
ag16
ag16
ag16
ag16
ag23
ag19
ag46
ag46
ag19
ag21
ag16
ag16
ag46
ag19
ag39
ag17
ag11
ag11
ag11
ag11
ag11
ag11
ag11
ag11
aa(lp77
g11
ag11
ag11
ag11
ag11
ag11
ag11
ag11
ag11
ag11
ag21
ag21
ag16
ag16
ag16
ag16
ag11
ag11
ag11
ag11
ag11
ag19
ag21
ag11
ag11
ag16
ag16
ag21
ag11
ag21
ag21
ag19
ag19
ag19
ag39
ag39
ag39
ag11
ag11
ag39
ag19
ag19
ag22
ag21
ag21
ag21
ag21
ag21
ag22
ag19
ag16
ag19
ag19
ag16
ag16
ag16
ag16
ag16
ag11
ag23
ag11
ag11
ag11
ag11
ag21
ag19
ag16
ag23
ag21
ag17
ag11
ag11
ag11
ag11
ag11
ag11
ag11
ag11
ag11
aa(lp78
g11
ag11
ag11
ag11
ag11
ag11
ag11
ag11
ag11
ag16
ag16
ag16
ag16
ag16
ag16
ag11
ag16
ag11
ag11
ag11
ag11
ag11
ag11
ag11
ag11
ag16
ag16
ag11
ag11
ag11
ag11
ag11
ag11
ag11
ag11
ag11
ag11
ag21
ag21
ag21
ag22
ag22
ag11
ag11
ag11
ag11
ag11
ag22
ag23
ag21
ag11
ag11
ag11
ag11
ag21
ag19
ag22
ag19
ag11
ag19
ag11
ag21
ag21
ag19
ag11
ag11
ag11
ag16
ag17
ag11
ag11
ag11
ag11
ag11
ag11
ag11
ag11
ag11
ag11
aa(lp79
g11
ag11
ag11
ag11
ag11
ag11
ag11
ag11
ag16
ag16
ag16
ag16
ag11
ag16
ag11
ag11
ag11
ag16
ag11
ag11
ag11
ag11
ag11
ag11
ag16
ag11
ag11
ag21
ag11
ag11
ag11
ag11
ag11
ag11
ag11
ag11
ag11
ag11
ag11
ag11
ag11
ag11
ag11
ag11
ag11
ag11
ag11
ag11
ag11
ag11
ag11
ag11
ag11
ag11
ag11
ag11
ag16
ag11
ag16
ag11
ag16
ag16
ag19
ag11
ag16
ag11
ag16
ag17
ag11
ag11
ag11
ag11
ag11
ag11
ag11
ag11
ag11
ag11
ag11
aa(lp80
g11
ag11
ag11
ag11
ag11
ag11
ag11
ag16
ag16
ag16
ag16
ag16
ag16
ag16
ag11
ag11
ag19
ag11
ag21
ag11
ag11
ag11
ag11
ag11
ag11
ag11
ag11
ag11
ag11
ag11
ag11
ag11
ag11
ag11
ag19
ag11
ag11
ag11
ag11
ag11
ag11
ag11
ag11
ag11
ag11
ag11
ag11
ag11
ag11
ag11
ag11
ag11
ag11
ag11
ag11
ag11
ag11
ag16
ag11
ag16
ag13
ag16
ag16
ag11
ag21
ag19
ag21
ag16
ag11
ag11
ag11
ag19
ag11
ag14
ag13
ag17
ag11
ag11
ag11
aa(lp81
g11
ag11
ag11
ag11
ag11
ag11
ag11
ag16
ag16
ag16
ag16
ag16
ag16
ag16
ag11
ag11
ag11
ag21
ag19
ag11
ag11
ag11
ag11
ag11
ag11
ag19
ag22
ag11
ag11
ag11
ag11
ag11
ag11
ag11
ag16
ag11
ag11
ag11
ag11
ag11
ag11
ag11
ag11
ag11
ag11
ag19
ag11
ag11
ag11
ag11
ag11
ag11
ag11
ag11
ag11
ag11
ag11
ag16
ag11
ag16
ag35
ag16
ag11
ag16
ag19
ag11
ag11
ag21
ag21
ag21
ag22
ag22
ag21
ag16
ag17
ag11
ag11
ag11
ag11
aa(lp82
g11
ag11
ag11
ag11
ag11
ag11
ag11
ag11
ag16
ag16
ag16
ag16
ag16
ag11
ag16
ag11
ag11
ag11
ag21
ag19
ag11
ag11
ag11
ag11
ag16
ag11
ag11
ag11
ag11
ag11
ag11
ag11
ag11
ag16
ag11
ag11
ag11
ag11
ag11
ag11
ag11
ag11
ag11
ag11
ag11
ag11
ag16
ag11
ag11
ag11
ag11
ag11
ag11
ag11
ag11
ag11
ag11
ag16
ag11
ag16
ag16
ag16
ag11
ag11
ag11
ag21
ag21
ag22
ag19
ag19
ag19
ag22
ag23
ag17
ag11
ag11
ag11
ag11
ag11
aasg55
I79
sg56
I23
sbasS'currentFrame'
p83
g57
sg55
I79
sg56
I23
sS'stdscr'
p84
Nsb.